Archive member included because of file (symbol)

c:/Espressif/ESP8266_SDK/lib\libmain.a(debug-vector.o)
                              (_DebugExceptionVector)
c:/Espressif/ESP8266_SDK/lib\libmain.a(double-vector.o)
                              (_DoubleExceptionVector)
c:/Espressif/ESP8266_SDK/lib\libmain.a(kernel-vector.o)
                              (_KernelExceptionVector)
c:/Espressif/ESP8266_SDK/lib\libmain.a(nmi-vector.o)
                              (_NMIExceptionVector)
c:/Espressif/ESP8266_SDK/lib\libmain.a(user-vector.o)
                              (_UserExceptionVector)
c:/Espressif/ESP8266_SDK/lib\libmain.a(vector.o)
                              (call_user_start)
c:/Espressif/ESP8266_SDK/lib\libmain.a(app_main.o)
                              c:/Espressif/ESP8266_SDK/lib\libmain.a(nmi-vector.o) (NMI_Handler)
c:/Espressif/ESP8266_SDK/lib\libmain.a(ets_timer.o)
                              c:/Espressif/ESP8266_SDK/lib\libmain.a(app_main.o) (ets_timer_setfn)
c:/Espressif/ESP8266_SDK/lib\libmain.a(mem_manager.o)
                              c:/Espressif/ESP8266_SDK/lib\libmain.a(app_main.o) (pvPortMalloc)
c:/Espressif/ESP8266_SDK/lib\libmain.a(spi_flash.o)
                              c:/Espressif/ESP8266_SDK/lib\libmain.a(app_main.o) (spi_flash_read)
c:/Espressif/ESP8266_SDK/lib\libmain.a(user_interface.o)
                              c:/Espressif/ESP8266_SDK/lib\libmain.a(app_main.o) (done_cb)
c:/Espressif/ESP8266_SDK/lib\libmain.a(eagle_lib.o)
                              c:/Espressif/ESP8266_SDK/lib\libmain.a(user_interface.o) (ets_sprintf)
c:/Espressif/ESP8266_SDK/lib\libmain.a(eagle_lwip_if.o)
                              c:/Espressif/ESP8266_SDK/lib\libmain.a(user_interface.o) (hostname)
c:/tools/sming/Sming/compiler/lib/\libsming.a(user_main.o)
                              c:/Espressif/ESP8266_SDK/lib\libmain.a(app_main.o) (user_init)
c:/tools/sming/Sming/compiler/lib/\libsming.a(System.o)
                              c:/tools/sming/Sming/compiler/lib/\libsming.a(user_main.o) (SystemClass::initialize())
c:/tools/sming/Sming/compiler/lib/\libsming.a(esp_cplusplus.o)
                              c:/tools/sming/Sming/compiler/lib/\libsming.a(user_main.o) (cpp_core_initialize)
c:/tools/sming/Sming/compiler/lib/\libsming.a(m_printf.o)
                              c:/tools/sming/Sming/compiler/lib/\libsming.a(esp_cplusplus.o) (m_printf)
c:/tools/sming/Sming/compiler/lib/\libsming.a(stringconversion.o)
                              c:/tools/sming/Sming/compiler/lib/\libsming.a(m_printf.o) (ltoa_w)
c:/tools/sming/Sming/compiler/lib/\libsming.a(IPAddress.o)
                              c:/tools/sming/Sming/compiler/lib/\libsming.a(user_main.o) (IPAddress::IPAddress(unsigned char, unsigned char, unsigned char, unsigned char))
c:/tools/sming/Sming/compiler/lib/\libsming.a(Print.o)
                              c:/tools/sming/Sming/compiler/lib/\libsming.a(IPAddress.o) (Print::print(char))
c:/tools/sming/Sming/compiler/lib/\libsming.a(WString.o)
                              c:/tools/sming/Sming/compiler/lib/\libsming.a(IPAddress.o) (String::~String())
c:/tools/sming/Sming/compiler/lib/\libsming.a(Interrupts.o)
                              c:/tools/sming/Sming/compiler/lib/\libsming.a(System.o) (noInterrupts())
c:/tools/sming/Sming/compiler/lib/\libsming.a(Digital.o)
                              c:/tools/sming/Sming/compiler/lib/\libsming.a(Interrupts.o) (pinMode(unsigned short, unsigned char))
out/build/app_app.a(application.o)
                              c:/tools/sming/Sming/compiler/lib/\libsming.a(user_main.o) (init())
c:/tools/sming/Sming/compiler/lib/\libmicroc.a(isspace.o)
                              c:/tools/sming/Sming/compiler/lib/\libsming.a(WString.o) (isspace)
c:/tools/sming/Sming/compiler/lib/\libmicroc.a(tolower.o)
                              c:/tools/sming/Sming/compiler/lib/\libsming.a(WString.o) (tolower)
c:/tools/sming/Sming/compiler/lib/\libmicroc.a(toupper.o)
                              c:/tools/sming/Sming/compiler/lib/\libsming.a(WString.o) (toupper)
c:/tools/sming/Sming/compiler/lib/\libmicroc.a(atof.o)
                              c:/tools/sming/Sming/compiler/lib/\libsming.a(WString.o) (atof)
c:/tools/sming/Sming/compiler/lib/\libmicroc.a(atoi.o)
                              c:/tools/sming/Sming/compiler/lib/\libsming.a(WString.o) (atoi)
c:/tools/sming/Sming/compiler/lib/\libmicroc.a(strtod.o)
                              c:/tools/sming/Sming/compiler/lib/\libmicroc.a(atof.o) (strtod)
c:/tools/sming/Sming/compiler/lib/\libmicroc.a(__fpclassify.o)
                              c:/tools/sming/Sming/compiler/lib/\libsming.a(stringconversion.o) (__fpclassifyd)
c:/tools/sming/Sming/compiler/lib/\libmicroc.a(strchr.o)
                              c:/tools/sming/Sming/compiler/lib/\libsming.a(WString.o) (strchr)
c:/tools/sming/Sming/compiler/lib/\libmicroc.a(strrchr.o)
                              c:/tools/sming/Sming/compiler/lib/\libsming.a(WString.o) (strrchr)
c:/tools/sming/Sming/compiler/lib/\libmicroc.a(strchrnul.o)
                              c:/tools/sming/Sming/compiler/lib/\libmicroc.a(strchr.o) (__strchrnul)
c:/tools/sming/Sming/compiler/lib/\libmicroc.a(malloc.o)
                              c:/tools/sming/Sming/compiler/lib/\libsming.a(esp_cplusplus.o) (malloc)
c:/tools/sming/Sming/compiler/lib/\libmicroc.a(abort.o)
                              c:/tools/sming/Sming/compiler/lib/\libsming.a(System.o) (abort)
c:/tools/sming/Sming/compiler/lib/\libmicroc.a(floatscan.o)
                              c:/tools/sming/Sming/compiler/lib/\libmicroc.a(strtod.o) (__floatscan)
c:/tools/sming/Sming/compiler/lib/\libmicroc.a(shgetc.o)
                              c:/tools/sming/Sming/compiler/lib/\libmicroc.a(strtod.o) (__shlim)
c:/tools/sming/Sming/compiler/lib/\libmicroc.a(__uflow.o)
                              c:/tools/sming/Sming/compiler/lib/\libmicroc.a(shgetc.o) (__uflow)
c:/tools/sming/Sming/compiler/lib/\libmicroc.a(__toread.o)
                              c:/tools/sming/Sming/compiler/lib/\libmicroc.a(__uflow.o) (__toread)
c:/tools/sming/Sming/compiler/lib/\libmicroc.a(__stdio_exit.o)
                              c:/tools/sming/Sming/compiler/lib/\libmicroc.a(__toread.o) (__stdio_exit_needed)
c:/tools/sming/Sming/compiler/lib/\libmicroc.a(fmodl.o)
                              c:/tools/sming/Sming/compiler/lib/\libmicroc.a(floatscan.o) (fmodl)
c:/tools/sming/Sming/compiler/lib/\libmicroc.a(scalbn.o)
                              c:/tools/sming/Sming/compiler/lib/\libmicroc.a(floatscan.o) (scalbn)
c:/tools/sming/Sming/compiler/lib/\libmicroc.a(scalbnl.o)
                              c:/tools/sming/Sming/compiler/lib/\libmicroc.a(floatscan.o) (scalbnl)
c:/tools/sming/Sming/compiler/lib/\libmicroc.a(__errno_location.o)
                              c:/tools/sming/Sming/compiler/lib/\libmicroc.a(floatscan.o) (__errno_location)
c:/tools/sming/Sming/compiler/lib/\libmicroc.a(fmod.o)
                              c:/tools/sming/Sming/compiler/lib/\libmicroc.a(fmodl.o) (fmod)
c:/tools/sming/Sming/compiler/lib/\libmicrogcc.a(_ashldi3.o)
                              c:/tools/sming/Sming/compiler/lib/\libmicroc.a(fmod.o) (__ashldi3)
c:/tools/sming/Sming/compiler/lib/\libmicrogcc.a(_cmpdf2.o)
                              c:/tools/sming/Sming/compiler/lib/\libmicroc.a(floatscan.o) (__eqdf2)
c:/tools/sming/Sming/compiler/lib/\libmicrogcc.a(_lshrdi3.o)
                              c:/tools/sming/Sming/compiler/lib/\libmicroc.a(fmod.o) (__lshrdi3)
c:/tools/sming/Sming/compiler/lib/\libmicrogcc.a(_modsi3.o)
                              c:/tools/sming/Sming/compiler/lib/\libsming.a(stringconversion.o) (__modsi3)
c:/espressif/xtensa-lx106-elf/bin/../lib/gcc/xtensa-lx106-elf/5.1.0/../../../../xtensa-lx106-elf/lib\libhal.a(int_asm--set_intclear.o)
                              c:/Espressif/ESP8266_SDK/lib\libmain.a(app_main.o) (xthal_set_intclear)
c:/Espressif/ESP8266_SDK/lib\libphy.a(phy.o)
                              c:/Espressif/ESP8266_SDK/lib\libmain.a(app_main.o) (phy_enable_agc)
c:/Espressif/ESP8266_SDK/lib\libphy.a(phy_chip_v6_ana.o)
                              c:/Espressif/ESP8266_SDK/lib\libmain.a(app_main.o) (chip_v6_set_chan_offset)
c:/Espressif/ESP8266_SDK/lib\libphy.a(phy_chip_v6.o)
                              c:/Espressif/ESP8266_SDK/lib\libphy.a(phy_chip_v6_ana.o) (g_phyFuns)
c:/Espressif/ESP8266_SDK/lib\libphy.a(phy_chip_v6_cal.o)
                              c:/Espressif/ESP8266_SDK/lib\libphy.a(phy_chip_v6.o) (loop_pwctrl_pwdet_error_accum_high_power)
c:/Espressif/ESP8266_SDK/lib\libphy.a(phy_chip_v6_unused.o)
                              c:/Espressif/ESP8266_SDK/lib\libphy.a(phy_chip_v6.o) (chip_v6_set_sense)
c:/Espressif/ESP8266_SDK/lib\libphy.a(phy_sleep.o)
                              c:/Espressif/ESP8266_SDK/lib\libphy.a(phy_chip_v6.o) (pm_set_sleep_cycles)
c:/Espressif/ESP8266_SDK/lib\libpp.a(if_hwctrl.o)
                              c:/Espressif/ESP8266_SDK/lib\libmain.a(user_interface.o) (ic_set_vif)
c:/Espressif/ESP8266_SDK/lib\libpp.a(lmac.o)
                              c:/Espressif/ESP8266_SDK/lib\libmain.a(app_main.o) (lmacInit)
c:/Espressif/ESP8266_SDK/lib\libpp.a(pm.o)
                              c:/Espressif/ESP8266_SDK/lib\libmain.a(user_interface.o) (pm_rtc_clock_cali_proc)
c:/Espressif/ESP8266_SDK/lib\libpp.a(pm_for_bcn_only_mode.o)
                              c:/Espressif/ESP8266_SDK/lib\libpp.a(pm.o) (fpm_is_open)
c:/Espressif/ESP8266_SDK/lib\libpp.a(pp.o)
                              c:/Espressif/ESP8266_SDK/lib\libpp.a(pm.o) (pend_flag_noise_check)
c:/Espressif/ESP8266_SDK/lib\libpp.a(rate_control.o)
                              c:/Espressif/ESP8266_SDK/lib\libpp.a(lmac.o) (RC_SetBasicRate)
c:/Espressif/ESP8266_SDK/lib\libpp.a(trc.o)
                              c:/Espressif/ESP8266_SDK/lib\libmain.a(user_interface.o) (rc_set_rate_limit_id)
c:/Espressif/ESP8266_SDK/lib\libpp.a(wdev.o)
                              c:/Espressif/ESP8266_SDK/lib\libpp.a(pp.o) (wDevCtrl)
c:/Espressif/ESP8266_SDK/lib\libpp.a(esf_buf.o)
                              c:/Espressif/ESP8266_SDK/lib\libpp.a(wdev.o) (esf_rx_buf_alloc)
c:/Espressif/ESP8266_SDK/lib\libnet80211.a(ieee80211.o)
                              c:/Espressif/ESP8266_SDK/lib\libmain.a(app_main.o) (g_ic)
c:/Espressif/ESP8266_SDK/lib\libnet80211.a(ieee80211_crypto.o)
                              c:/Espressif/ESP8266_SDK/lib\libnet80211.a(ieee80211.o) (ieee80211_crypto_attach)
c:/Espressif/ESP8266_SDK/lib\libnet80211.a(ieee80211_ets.o)
                              c:/Espressif/ESP8266_SDK/lib\libpp.a(pm.o) (ieee80211_getmgtframe)
c:/Espressif/ESP8266_SDK/lib\libnet80211.a(ieee80211_hostap.o)
                              c:/Espressif/ESP8266_SDK/lib\libmain.a(user_interface.o) (BcnEb_update)
c:/Espressif/ESP8266_SDK/lib\libnet80211.a(ieee80211_ht.o)
                              c:/Espressif/ESP8266_SDK/lib\libmain.a(user_interface.o) (ieee80211_ht_attach)
c:/Espressif/ESP8266_SDK/lib\libnet80211.a(ieee80211_input.o)
                              c:/Espressif/ESP8266_SDK/lib\libnet80211.a(ieee80211_hostap.o) (ieee80211_decap)
c:/Espressif/ESP8266_SDK/lib\libnet80211.a(ieee80211_mesh_quick.o)
                              c:/Espressif/ESP8266_SDK/lib\libnet80211.a(ieee80211_hostap.o) (ieee80211_mesh_quick_get)
c:/Espressif/ESP8266_SDK/lib\libnet80211.a(ieee80211_output.o)
                              c:/Espressif/ESP8266_SDK/lib\libmain.a(eagle_lwip_if.o) (ieee80211_output_pbuf)
c:/Espressif/ESP8266_SDK/lib\libnet80211.a(ieee80211_phy.o)
                              c:/Espressif/ESP8266_SDK/lib\libmain.a(app_main.o) (ieee80211_phy_init)
c:/Espressif/ESP8266_SDK/lib\libnet80211.a(ieee80211_power.o)
                              c:/Espressif/ESP8266_SDK/lib\libnet80211.a(ieee80211_hostap.o) (ieee80211_psq_init)
c:/Espressif/ESP8266_SDK/lib\libnet80211.a(ieee80211_proto.o)
                              c:/Espressif/ESP8266_SDK/lib\libnet80211.a(ieee80211.o) (ieee80211_proto_attach)
c:/Espressif/ESP8266_SDK/lib\libnet80211.a(ieee80211_rfid.o)
                              c:/Espressif/ESP8266_SDK/lib\libmain.a(user_interface.o) (ieee80211_rfid_locp_recv_open)
c:/Espressif/ESP8266_SDK/lib\libnet80211.a(ieee80211_scan.o)
                              c:/Espressif/ESP8266_SDK/lib\libpp.a(pp.o) (gScanStruct)
c:/Espressif/ESP8266_SDK/lib\libnet80211.a(ieee80211_sta.o)
                              c:/Espressif/ESP8266_SDK/lib\libmain.a(user_interface.o) (ieee80211_sta_new_state)
c:/Espressif/ESP8266_SDK/lib\libnet80211.a(wl_chm.o)
                              c:/Espressif/ESP8266_SDK/lib\libnet80211.a(ieee80211.o) (chm_init)
c:/Espressif/ESP8266_SDK/lib\libnet80211.a(wl_cnx.o)
                              c:/Espressif/ESP8266_SDK/lib\libmain.a(user_interface.o) (sta_con_timer)
c:/Espressif/ESP8266_SDK/lib\libnet80211.a(ieee80211_action.o)
                              c:/Espressif/ESP8266_SDK/lib\libnet80211.a(ieee80211_ht.o) (ieee80211_send_action_register)
c:/Espressif/ESP8266_SDK/lib\libnet80211.a(ieee80211_action_vendor.o)
                              c:/Espressif/ESP8266_SDK/lib\libnet80211.a(ieee80211.o) (ieee80211_action_vendor_spec_attach)
c:/Espressif/ESP8266_SDK/lib\libnet80211.a(ieee80211_crypto_ccmp.o)
                              c:/Espressif/ESP8266_SDK/lib\libnet80211.a(ieee80211_input.o) (ccmp)
c:/Espressif/ESP8266_SDK/lib\libnet80211.a(ieee80211_ie_vendor.o)
                              c:/Espressif/ESP8266_SDK/lib\libnet80211.a(ieee80211_mesh_quick.o) (ieee80211_add_ie_vendor_esp_mesh_assoc)
c:/Espressif/ESP8266_SDK/lib\liblwip.a(dhcp.o)
                              c:/Espressif/ESP8266_SDK/lib\libnet80211.a(wl_cnx.o) (dhcp_release)
c:/Espressif/ESP8266_SDK/lib\liblwip.a(dhcpserver.o)
                              c:/Espressif/ESP8266_SDK/lib\libmain.a(user_interface.o) (dhcps_start)
c:/Espressif/ESP8266_SDK/lib\liblwip.a(dns.o)
                              c:/Espressif/ESP8266_SDK/lib\liblwip.a(dhcp.o) (dns_setserver)
c:/Espressif/ESP8266_SDK/lib\liblwip.a(espconn_tcp.o)
                              c:/Espressif/ESP8266_SDK/lib\libmain.a(app_main.o) (espconn_init)
c:/Espressif/ESP8266_SDK/lib\liblwip.a(etharp.o)
                              c:/Espressif/ESP8266_SDK/lib\libmain.a(user_interface.o) (ethbroadcast)
c:/Espressif/ESP8266_SDK/lib\liblwip.a(init.o)
                              c:/Espressif/ESP8266_SDK/lib\libmain.a(app_main.o) (lwip_init)
c:/Espressif/ESP8266_SDK/lib\liblwip.a(ip_addr.o)
                              c:/Espressif/ESP8266_SDK/lib\liblwip.a(dhcp.o) (ip_addr_any)
c:/Espressif/ESP8266_SDK/lib\liblwip.a(ip.o)
                              c:/Espressif/ESP8266_SDK/lib\liblwip.a(etharp.o) (ip_input)
c:/Espressif/ESP8266_SDK/lib\liblwip.a(memp.o)
                              c:/Espressif/ESP8266_SDK/lib\liblwip.a(etharp.o) (memp_sizes)
c:/Espressif/ESP8266_SDK/lib\liblwip.a(netif.o)
                              c:/Espressif/ESP8266_SDK/lib\liblwip.a(dhcp.o) (netif_list)
c:/Espressif/ESP8266_SDK/lib\liblwip.a(pbuf.o)
                              c:/Espressif/ESP8266_SDK/lib\libnet80211.a(ieee80211_hostap.o) (pbuf_alloc)
c:/Espressif/ESP8266_SDK/lib\liblwip.a(raw.o)
                              c:/Espressif/ESP8266_SDK/lib\liblwip.a(ip.o) (raw_input)
c:/Espressif/ESP8266_SDK/lib\liblwip.a(tcp_in.o)
                              c:/Espressif/ESP8266_SDK/lib\liblwip.a(ip.o) (tcp_input)
c:/Espressif/ESP8266_SDK/lib\liblwip.a(tcp.o)
                              c:/Espressif/ESP8266_SDK/lib\liblwip.a(espconn_tcp.o) (tcp_active_pcbs)
c:/Espressif/ESP8266_SDK/lib\liblwip.a(tcp_out.o)
                              c:/Espressif/ESP8266_SDK/lib\liblwip.a(tcp.o) (tcp_send_fin)
c:/Espressif/ESP8266_SDK/lib\liblwip.a(timers.o)
                              c:/Espressif/ESP8266_SDK/lib\liblwip.a(tcp_in.o) (tcp_timer_needed)
c:/Espressif/ESP8266_SDK/lib\liblwip.a(udp.o)
                              c:/Espressif/ESP8266_SDK/lib\liblwip.a(ip.o) (udp_input)
c:/Espressif/ESP8266_SDK/lib\liblwip.a(espconn.o)
                              c:/Espressif/ESP8266_SDK/lib\liblwip.a(espconn_tcp.o) (plink_active)
c:/Espressif/ESP8266_SDK/lib\liblwip.a(espconn_udp.o)
                              c:/Espressif/ESP8266_SDK/lib\liblwip.a(espconn.o) (espconn_udp_sent)
c:/Espressif/ESP8266_SDK/lib\liblwip.a(icmp.o)
                              c:/Espressif/ESP8266_SDK/lib\liblwip.a(ip.o) (icmp_input)
c:/Espressif/ESP8266_SDK/lib\liblwip.a(igmp.o)
                              c:/Espressif/ESP8266_SDK/lib\liblwip.a(init.o) (igmp_init)
c:/Espressif/ESP8266_SDK/lib\liblwip.a(inet_chksum.o)
                              c:/Espressif/ESP8266_SDK/lib\liblwip.a(tcp_in.o) (inet_chksum_pseudo)
c:/Espressif/ESP8266_SDK/lib\libwpa.a(ap_config.o)
                              c:/Espressif/ESP8266_SDK/lib\libnet80211.a(ieee80211_hostap.o) (hostapd_setup_wpa_psk)
c:/Espressif/ESP8266_SDK/lib\libwpa.a(common.o)
                              c:/Espressif/ESP8266_SDK/lib\libmain.a(user_interface.o) (hexstr2bin)
c:/Espressif/ESP8266_SDK/lib\libwpa.a(os_xtensa.o)
                              c:/Espressif/ESP8266_SDK/lib\libwpa.a(common.o) (os_get_time)
c:/Espressif/ESP8266_SDK/lib\libwpa.a(wpa_auth.o)
                              c:/Espressif/ESP8266_SDK/lib\libnet80211.a(ieee80211_hostap.o) (wpa_init)
c:/Espressif/ESP8266_SDK/lib\libwpa.a(wpa_auth_ie.o)
                              c:/Espressif/ESP8266_SDK/lib\libwpa.a(wpa_auth.o) (wpa_auth_gen_wpa_ie)
c:/Espressif/ESP8266_SDK/lib\libwpa.a(wpa.o)
                              c:/Espressif/ESP8266_SDK/lib\libnet80211.a(ieee80211_sta.o) (wpa_sm_rx_eapol)
c:/Espressif/ESP8266_SDK/lib\libwpa.a(wpa_common.o)
                              c:/Espressif/ESP8266_SDK/lib\libwpa.a(wpa_auth_ie.o) (wpa_parse_wpa_ie_rsn)
c:/Espressif/ESP8266_SDK/lib\libwpa.a(wpa_debug.o)
                              c:/Espressif/ESP8266_SDK/lib\libwpa.a(wpa_auth.o) (eloop_cancel_timeout)
c:/Espressif/ESP8266_SDK/lib\libwpa.a(wpa_ie.o)
                              c:/Espressif/ESP8266_SDK/lib\libnet80211.a(ieee80211_scan.o) (wpa_parse_wpa_ie)
c:/Espressif/ESP8266_SDK/lib\libwpa.a(wpa_main.o)
                              c:/Espressif/ESP8266_SDK/lib\libnet80211.a(wl_cnx.o) (ppInstallKey)
c:/Espressif/ESP8266_SDK/lib\libwpa.a(wpas_glue.o)
                              c:/Espressif/ESP8266_SDK/lib\libwpa.a(wpa.o) (wpa_sm_alloc_eapol)
c:/tools/sming/Sming/compiler/lib/\libsming.a(Timer.o)
                              out/build/app_app.a(application.o) (Timer::start(bool))
c:/Espressif/ESP8266_SDK/lib\libcrypto.a(aes-wrap.o)
                              c:/Espressif/ESP8266_SDK/lib\libwpa.a(wpa_auth.o) (aes_wrap)
c:/Espressif/ESP8266_SDK/lib\libcrypto.a(aes-internal-enc.o)
                              c:/Espressif/ESP8266_SDK/lib\libcrypto.a(aes-wrap.o) (aes_encrypt_init)
c:/Espressif/ESP8266_SDK/lib\libcrypto.a(aes-internal.o)
                              c:/Espressif/ESP8266_SDK/lib\libcrypto.a(aes-internal-enc.o) (rijndaelKeySetupEnc)
c:/tools/sming/Sming/compiler/lib/\libmicrogcc.a(_ashrdi3.o)
                              c:/Espressif/ESP8266_SDK/lib\libphy.a(phy_chip_v6.o) (__ashrdi3)
c:/tools/sming/Sming/compiler/lib/\libmicrogcc.a(_divsf3.o)
                              c:/Espressif/ESP8266_SDK/lib\libphy.a(phy_chip_v6_ana.o) (__divsf3)
c:/tools/sming/Sming/compiler/lib/\libmicrogcc.a(_fixsfsi.o)
                              c:/Espressif/ESP8266_SDK/lib\libphy.a(phy_chip_v6.o) (__fixsfsi)
c:/Espressif/ESP8266_SDK/lib\libnet80211.a(ieee80211_crypto_tkip.o)
                              c:/Espressif/ESP8266_SDK/lib\libwpa.a(wpa_auth.o) (tkip)
c:/Espressif/ESP8266_SDK/lib\libnet80211.a(ieee80211_crypto_wep.o)
                              c:/Espressif/ESP8266_SDK/lib\libwpa.a(wpa_auth.o) (wep)

Discarded input sections

 .text          0x00000000        0x0 c:/Espressif/ESP8266_SDK/lib\libmain.a(debug-vector.o)
 .data          0x00000000        0x0 c:/Espressif/ESP8266_SDK/lib\libmain.a(debug-vector.o)
 .bss           0x00000000        0x0 c:/Espressif/ESP8266_SDK/lib\libmain.a(debug-vector.o)
 .xt.prop       0x00000000       0x18 c:/Espressif/ESP8266_SDK/lib\libmain.a(debug-vector.o)
 .text          0x00000000        0x0 c:/Espressif/ESP8266_SDK/lib\libmain.a(double-vector.o)
 .data          0x00000000        0x0 c:/Espressif/ESP8266_SDK/lib\libmain.a(double-vector.o)
 .bss           0x00000000        0x0 c:/Espressif/ESP8266_SDK/lib\libmain.a(double-vector.o)
 .xt.prop       0x00000000       0x18 c:/Espressif/ESP8266_SDK/lib\libmain.a(double-vector.o)
 .text          0x00000000        0x0 c:/Espressif/ESP8266_SDK/lib\libmain.a(kernel-vector.o)
 .data          0x00000000        0x0 c:/Espressif/ESP8266_SDK/lib\libmain.a(kernel-vector.o)
 .bss           0x00000000        0x0 c:/Espressif/ESP8266_SDK/lib\libmain.a(kernel-vector.o)
 .xt.prop       0x00000000       0x18 c:/Espressif/ESP8266_SDK/lib\libmain.a(kernel-vector.o)
 .literal       0x00000000        0x0 c:/Espressif/ESP8266_SDK/lib\libmain.a(nmi-vector.o)
 .NMIExceptionVector.literal
                0x00000000        0x0 c:/Espressif/ESP8266_SDK/lib\libmain.a(nmi-vector.o)
 .xt.lit        0x00000000       0x10 c:/Espressif/ESP8266_SDK/lib\libmain.a(nmi-vector.o)
 .xt.prop       0x00000000       0x3c c:/Espressif/ESP8266_SDK/lib\libmain.a(nmi-vector.o)
 .literal       0x00000000        0x0 c:/Espressif/ESP8266_SDK/lib\libmain.a(user-vector.o)
 .UserExceptionVector.literal
                0x00000000        0x0 c:/Espressif/ESP8266_SDK/lib\libmain.a(user-vector.o)
 .data          0x00000000        0x0 c:/Espressif/ESP8266_SDK/lib\libmain.a(user-vector.o)
 .bss           0x00000000        0x0 c:/Espressif/ESP8266_SDK/lib\libmain.a(user-vector.o)
 .xt.lit        0x00000000       0x10 c:/Espressif/ESP8266_SDK/lib\libmain.a(user-vector.o)
 .xt.prop       0x00000000       0x3c c:/Espressif/ESP8266_SDK/lib\libmain.a(user-vector.o)
 .UserEnter.literal
                0x00000000        0x0 c:/Espressif/ESP8266_SDK/lib\libmain.a(vector.o)
 .text          0x00000000        0x0 c:/Espressif/ESP8266_SDK/lib\libmain.a(vector.o)
 .data          0x00000000        0x0 c:/Espressif/ESP8266_SDK/lib\libmain.a(vector.o)
 .bss           0x00000000        0x0 c:/Espressif/ESP8266_SDK/lib\libmain.a(vector.o)
 .xt.lit        0x00000000        0x8 c:/Espressif/ESP8266_SDK/lib\libmain.a(vector.o)
 .xt.prop       0x00000000       0x18 c:/Espressif/ESP8266_SDK/lib\libmain.a(vector.o)
 .literal       0x00000000        0x0 c:/Espressif/ESP8266_SDK/lib\libmain.a(app_main.o)
 .irom0.literal
                0x00000000        0x0 c:/Espressif/ESP8266_SDK/lib\libmain.a(app_main.o)
 .xt.lit        0x00000000       0xa0 c:/Espressif/ESP8266_SDK/lib\libmain.a(app_main.o)
 .xt.prop       0x00000000      0xdd4 c:/Espressif/ESP8266_SDK/lib\libmain.a(app_main.o)
 .literal       0x00000000        0x0 c:/Espressif/ESP8266_SDK/lib\libmain.a(ets_timer.o)
 .irom0.literal
                0x00000000        0x0 c:/Espressif/ESP8266_SDK/lib\libmain.a(ets_timer.o)
 .data          0x00000000        0x0 c:/Espressif/ESP8266_SDK/lib\libmain.a(ets_timer.o)
 .xt.lit        0x00000000       0x48 c:/Espressif/ESP8266_SDK/lib\libmain.a(ets_timer.o)
 .xt.prop       0x00000000      0x45c c:/Espressif/ESP8266_SDK/lib\libmain.a(ets_timer.o)
 .irom0.literal
                0x00000000        0x0 c:/Espressif/ESP8266_SDK/lib\libmain.a(mem_manager.o)
 .literal       0x00000000        0x0 c:/Espressif/ESP8266_SDK/lib\libmain.a(mem_manager.o)
 .data          0x00000000        0x0 c:/Espressif/ESP8266_SDK/lib\libmain.a(mem_manager.o)
 .xt.lit        0x00000000       0x60 c:/Espressif/ESP8266_SDK/lib\libmain.a(mem_manager.o)
 .xt.prop       0x00000000      0x474 c:/Espressif/ESP8266_SDK/lib\libmain.a(mem_manager.o)
 .literal       0x00000000        0x0 c:/Espressif/ESP8266_SDK/lib\libmain.a(spi_flash.o)
 .irom0.literal
                0x00000000        0x0 c:/Espressif/ESP8266_SDK/lib\libmain.a(spi_flash.o)
 .data          0x00000000        0x0 c:/Espressif/ESP8266_SDK/lib\libmain.a(spi_flash.o)
 .irom0.text    0x00000000        0xb c:/Espressif/ESP8266_SDK/lib\libmain.a(spi_flash.o)
 .xt.lit        0x00000000       0x48 c:/Espressif/ESP8266_SDK/lib\libmain.a(spi_flash.o)
 .xt.prop       0x00000000      0x21c c:/Espressif/ESP8266_SDK/lib\libmain.a(spi_flash.o)
 .irom0.literal
                0x00000000        0x0 c:/Espressif/ESP8266_SDK/lib\libmain.a(user_interface.o)
 .literal       0x00000000        0x0 c:/Espressif/ESP8266_SDK/lib\libmain.a(user_interface.o)
 .xt.lit        0x00000000      0x490 c:/Espressif/ESP8266_SDK/lib\libmain.a(user_interface.o)
 .xt.prop       0x00000000     0x366c c:/Espressif/ESP8266_SDK/lib\libmain.a(user_interface.o)
 .irom0.literal
                0x00000000        0x0 c:/Espressif/ESP8266_SDK/lib\libmain.a(eagle_lib.o)
 .text          0x00000000        0x0 c:/Espressif/ESP8266_SDK/lib\libmain.a(eagle_lib.o)
 .data          0x00000000        0x0 c:/Espressif/ESP8266_SDK/lib\libmain.a(eagle_lib.o)
 .bss           0x00000000        0x0 c:/Espressif/ESP8266_SDK/lib\libmain.a(eagle_lib.o)
 .xt.lit        0x00000000       0x18 c:/Espressif/ESP8266_SDK/lib\libmain.a(eagle_lib.o)
 .xt.prop       0x00000000      0x858 c:/Espressif/ESP8266_SDK/lib\libmain.a(eagle_lib.o)
 .irom0.literal
                0x00000000        0x0 c:/Espressif/ESP8266_SDK/lib\libmain.a(eagle_lwip_if.o)
 .text          0x00000000        0x0 c:/Espressif/ESP8266_SDK/lib\libmain.a(eagle_lwip_if.o)
 .xt.lit        0x00000000       0x28 c:/Espressif/ESP8266_SDK/lib\libmain.a(eagle_lwip_if.o)
 .xt.prop       0x00000000      0x294 c:/Espressif/ESP8266_SDK/lib\libmain.a(eagle_lwip_if.o)
 .group         0x00000000       0x14 c:/tools/sming/Sming/compiler/lib/\libsming.a(user_main.o)
 .literal.user_init
                0x00000000        0x0 c:/tools/sming/Sming/compiler/lib/\libsming.a(user_main.o)
 .literal.user_rf_pre_init
                0x00000000        0x0 c:/tools/sming/Sming/compiler/lib/\libsming.a(user_main.o)
 .literal.startup._GLOBAL__sub_I_user_main_cpp
                0x00000000        0x0 c:/tools/sming/Sming/compiler/lib/\libsming.a(user_main.o)
 .text          0x00000000        0x0 c:/tools/sming/Sming/compiler/lib/\libsming.a(user_main.o)
 .data          0x00000000        0x0 c:/tools/sming/Sming/compiler/lib/\libsming.a(user_main.o)
 .bss           0x00000000        0x0 c:/tools/sming/Sming/compiler/lib/\libsming.a(user_main.o)
 .text.user_rf_pre_init
                0x00000000       0x34 c:/tools/sming/Sming/compiler/lib/\libsming.a(user_main.o)
 .xt.lit        0x00000000       0x18 c:/tools/sming/Sming/compiler/lib/\libsming.a(user_main.o)
 .xt.prop       0x00000000       0xa8 c:/tools/sming/Sming/compiler/lib/\libsming.a(user_main.o)
 .group         0x00000000       0x10 c:/tools/sming/Sming/compiler/lib/\libsming.a(System.o)
 .group         0x00000000       0x10 c:/tools/sming/Sming/compiler/lib/\libsming.a(System.o)
 .group         0x00000000       0x14 c:/tools/sming/Sming/compiler/lib/\libsming.a(System.o)
 .group         0x00000000       0x14 c:/tools/sming/Sming/compiler/lib/\libsming.a(System.o)
 .group         0x00000000       0x14 c:/tools/sming/Sming/compiler/lib/\libsming.a(System.o)
 .group         0x00000000       0x14 c:/tools/sming/Sming/compiler/lib/\libsming.a(System.o)
 .group         0x00000000       0x14 c:/tools/sming/Sming/compiler/lib/\libsming.a(System.o)
 .group         0x00000000       0x20 c:/tools/sming/Sming/compiler/lib/\libsming.a(System.o)
 .group         0x00000000       0x14 c:/tools/sming/Sming/compiler/lib/\libsming.a(System.o)
 .group         0x00000000       0x20 c:/tools/sming/Sming/compiler/lib/\libsming.a(System.o)
 .group         0x00000000        0xc c:/tools/sming/Sming/compiler/lib/\libsming.a(System.o)
 .group         0x00000000        0xc c:/tools/sming/Sming/compiler/lib/\libsming.a(System.o)
 .iram.literal  0x00000000        0x0 c:/tools/sming/Sming/compiler/lib/\libsming.a(System.o)
 .literal._ZN11SystemClassC2Ev
                0x00000000        0x0 c:/tools/sming/Sming/compiler/lib/\libsming.a(System.o)
 .literal._ZN11SystemClass10initializeEv
                0x00000000        0x0 c:/tools/sming/Sming/compiler/lib/\libsming.a(System.o)
 .literal._ZN11SystemClass7restartEv
                0x00000000        0x0 c:/tools/sming/Sming/compiler/lib/\libsming.a(System.o)
 .literal._ZN11SystemClass7isReadyEv
                0x00000000        0x0 c:/tools/sming/Sming/compiler/lib/\libsming.a(System.o)
 .literal._ZN11SystemClass7onReadyE8DelegateIFvvEE
                0x00000000        0x0 c:/tools/sming/Sming/compiler/lib/\libsming.a(System.o)
 .literal._ZN11SystemClass7onReadyEP19ISystemReadyHandler
                0x00000000        0x0 c:/tools/sming/Sming/compiler/lib/\libsming.a(System.o)
 .literal._ZN11SystemClass15setCpuFrequencyE12CpuFrequency
                0x00000000        0x0 c:/tools/sming/Sming/compiler/lib/\libsming.a(System.o)
 .literal._ZN11SystemClass15getCpuFrequencyEv
                0x00000000        0x0 c:/tools/sming/Sming/compiler/lib/\libsming.a(System.o)
 .literal._ZN11SystemClass9deepSleepEj16DeepSleepOptions
                0x00000000        0x0 c:/tools/sming/Sming/compiler/lib/\libsming.a(System.o)
 .literal._ZN11SystemClass19applyFirmwareUpdateEjji
                0x00000000        0x0 c:/tools/sming/Sming/compiler/lib/\libsming.a(System.o)
 .literal._ZN11SystemClass12readyHandlerEv
                0x00000000        0x0 c:/tools/sming/Sming/compiler/lib/\libsming.a(System.o)
 .literal._ZN11SystemClass18staticReadyHandlerEv
                0x00000000        0x0 c:/tools/sming/Sming/compiler/lib/\libsming.a(System.o)
 .literal.startup._GLOBAL__sub_I_System
                0x00000000        0x0 c:/tools/sming/Sming/compiler/lib/\libsming.a(System.o)
 .literal.exit._GLOBAL__sub_D_System
                0x00000000        0x0 c:/tools/sming/Sming/compiler/lib/\libsming.a(System.o)
 .text          0x00000000        0x0 c:/tools/sming/Sming/compiler/lib/\libsming.a(System.o)
 .data          0x00000000        0x0 c:/tools/sming/Sming/compiler/lib/\libsming.a(System.o)
 .bss           0x00000000        0x0 c:/tools/sming/Sming/compiler/lib/\libsming.a(System.o)
 .rodata.str1.1
                0x00000000       0x77 c:/tools/sming/Sming/compiler/lib/\libsming.a(System.o)
 .iram.text     0x00000000       0xcc c:/tools/sming/Sming/compiler/lib/\libsming.a(System.o)
 .text._ZN11SystemClass7restartEv
                0x00000000       0x17 c:/tools/sming/Sming/compiler/lib/\libsming.a(System.o)
 .text._ZN11SystemClass7isReadyEv
                0x00000000        0xe c:/tools/sming/Sming/compiler/lib/\libsming.a(System.o)
 .text._ZN11SystemClass7onReadyE8DelegateIFvvEE
                0x00000000       0xa0 c:/tools/sming/Sming/compiler/lib/\libsming.a(System.o)
 .text._ZN11SystemClass7onReadyEP19ISystemReadyHandler
                0x00000000       0x93 c:/tools/sming/Sming/compiler/lib/\libsming.a(System.o)
 .text._ZN11SystemClass15setCpuFrequencyE12CpuFrequency
                0x00000000       0x41 c:/tools/sming/Sming/compiler/lib/\libsming.a(System.o)
 .text._ZN11SystemClass15getCpuFrequencyEv
                0x00000000       0x17 c:/tools/sming/Sming/compiler/lib/\libsming.a(System.o)
 .text._ZN11SystemClass9deepSleepEj16DeepSleepOptions
                0x00000000       0x3f c:/tools/sming/Sming/compiler/lib/\libsming.a(System.o)
 .text._ZN11SystemClass19applyFirmwareUpdateEjji
                0x00000000       0x68 c:/tools/sming/Sming/compiler/lib/\libsming.a(System.o)
 .xt.lit        0x00000000       0x70 c:/tools/sming/Sming/compiler/lib/\libsming.a(System.o)
 .xt.prop       0x00000000      0x2f4 c:/tools/sming/Sming/compiler/lib/\libsming.a(System.o)
 .literal.cpp_core_initialize
                0x00000000        0x0 c:/tools/sming/Sming/compiler/lib/\libsming.a(esp_cplusplus.o)
 .literal._Znwj
                0x00000000        0x0 c:/tools/sming/Sming/compiler/lib/\libsming.a(esp_cplusplus.o)
 .literal._Znaj
                0x00000000        0x0 c:/tools/sming/Sming/compiler/lib/\libsming.a(esp_cplusplus.o)
 .literal._ZdaPv
                0x00000000        0x0 c:/tools/sming/Sming/compiler/lib/\libsming.a(esp_cplusplus.o)
 .literal._ZdlPv
                0x00000000        0x0 c:/tools/sming/Sming/compiler/lib/\libsming.a(esp_cplusplus.o)
 .literal.__cxa_pure_virtual
                0x00000000        0x0 c:/tools/sming/Sming/compiler/lib/\libsming.a(esp_cplusplus.o)
 .literal.__cxa_deleted_virtual
                0x00000000        0x0 c:/tools/sming/Sming/compiler/lib/\libsming.a(esp_cplusplus.o)
 .literal.__cxa_guard_acquire
                0x00000000        0x0 c:/tools/sming/Sming/compiler/lib/\libsming.a(esp_cplusplus.o)
 .literal.__cxa_guard_release
                0x00000000        0x0 c:/tools/sming/Sming/compiler/lib/\libsming.a(esp_cplusplus.o)
 .literal.__cxa_guard_abort
                0x00000000        0x0 c:/tools/sming/Sming/compiler/lib/\libsming.a(esp_cplusplus.o)
 .text          0x00000000        0x0 c:/tools/sming/Sming/compiler/lib/\libsming.a(esp_cplusplus.o)
 .data          0x00000000        0x0 c:/tools/sming/Sming/compiler/lib/\libsming.a(esp_cplusplus.o)
 .bss           0x00000000        0x0 c:/tools/sming/Sming/compiler/lib/\libsming.a(esp_cplusplus.o)
 .text._Znwj    0x00000000       0x17 c:/tools/sming/Sming/compiler/lib/\libsming.a(esp_cplusplus.o)
 .rodata.str1.1
                0x00000000       0x41 c:/tools/sming/Sming/compiler/lib/\libsming.a(esp_cplusplus.o)
 .text.__cxa_pure_virtual
                0x00000000       0x20 c:/tools/sming/Sming/compiler/lib/\libsming.a(esp_cplusplus.o)
 .text.__cxa_deleted_virtual
                0x00000000       0x20 c:/tools/sming/Sming/compiler/lib/\libsming.a(esp_cplusplus.o)
 .text.__cxa_guard_acquire
                0x00000000        0x2 c:/tools/sming/Sming/compiler/lib/\libsming.a(esp_cplusplus.o)
 .text.__cxa_guard_release
                0x00000000        0x2 c:/tools/sming/Sming/compiler/lib/\libsming.a(esp_cplusplus.o)
 .text.__cxa_guard_abort
                0x00000000        0x2 c:/tools/sming/Sming/compiler/lib/\libsming.a(esp_cplusplus.o)
 .xt.lit        0x00000000       0x38 c:/tools/sming/Sming/compiler/lib/\libsming.a(esp_cplusplus.o)
 .xt.prop       0x00000000      0x174 c:/tools/sming/Sming/compiler/lib/\libsming.a(esp_cplusplus.o)
 .group         0x00000000       0x14 c:/tools/sming/Sming/compiler/lib/\libsming.a(m_printf.o)
 .literal._ZN17ESP01_DescriptionC5Ev
                0x00000000        0x0 c:/tools/sming/Sming/compiler/lib/\libsming.a(m_printf.o)
 .literal._Z20setMPrintfPrinterCbcPFvcE
                0x00000000        0x0 c:/tools/sming/Sming/compiler/lib/\libsming.a(m_printf.o)
 .literal.m_vsnprintf
                0x00000000        0x0 c:/tools/sming/Sming/compiler/lib/\libsming.a(m_printf.o)
 .literal.m_snprintf
                0x00000000        0x0 c:/tools/sming/Sming/compiler/lib/\libsming.a(m_printf.o)
 .literal.m_printf
                0x00000000        0x0 c:/tools/sming/Sming/compiler/lib/\libsming.a(m_printf.o)
 .literal.startup._GLOBAL__sub_I_cbc_printchar
                0x00000000        0x0 c:/tools/sming/Sming/compiler/lib/\libsming.a(m_printf.o)
 .text          0x00000000        0x0 c:/tools/sming/Sming/compiler/lib/\libsming.a(m_printf.o)
 .data          0x00000000        0x0 c:/tools/sming/Sming/compiler/lib/\libsming.a(m_printf.o)
 .bss           0x00000000        0x0 c:/tools/sming/Sming/compiler/lib/\libsming.a(m_printf.o)
 .text._ZN17ESP01_DescriptionC2Ev
                0x00000000       0x3f c:/tools/sming/Sming/compiler/lib/\libsming.a(m_printf.o)
 .text._Z20setMPrintfPrinterCbcPFvcE
                0x00000000        0xb c:/tools/sming/Sming/compiler/lib/\libsming.a(m_printf.o)
 .text.m_snprintf
                0x00000000       0x2b c:/tools/sming/Sming/compiler/lib/\libsming.a(m_printf.o)
 .rodata._ZL14EspDigitalPins
                0x00000000       0xc0 c:/tools/sming/Sming/compiler/lib/\libsming.a(m_printf.o)
 .xt.lit._ZN17ESP01_DescriptionC2Ev
                0x00000000        0x8 c:/tools/sming/Sming/compiler/lib/\libsming.a(m_printf.o)
 .xt.lit        0x00000000       0x28 c:/tools/sming/Sming/compiler/lib/\libsming.a(m_printf.o)
 .xt.prop._ZN17ESP01_DescriptionC2Ev
                0x00000000       0x24 c:/tools/sming/Sming/compiler/lib/\libsming.a(m_printf.o)
 .xt.prop       0x00000000      0x3fc c:/tools/sming/Sming/compiler/lib/\libsming.a(m_printf.o)
 .literal.ltoa_w
                0x00000000        0x0 c:/tools/sming/Sming/compiler/lib/\libsming.a(stringconversion.o)
 .literal.ltoa  0x00000000        0x0 c:/tools/sming/Sming/compiler/lib/\libsming.a(stringconversion.o)
 .literal.ultoa_wp
                0x00000000        0x0 c:/tools/sming/Sming/compiler/lib/\libsming.a(stringconversion.o)
 .literal.ultoa_w
                0x00000000        0x0 c:/tools/sming/Sming/compiler/lib/\libsming.a(stringconversion.o)
 .literal.ultoa
                0x00000000        0x0 c:/tools/sming/Sming/compiler/lib/\libsming.a(stringconversion.o)
 .literal.dtostrf
                0x00000000        0x0 c:/tools/sming/Sming/compiler/lib/\libsming.a(stringconversion.o)
 .text          0x00000000        0x0 c:/tools/sming/Sming/compiler/lib/\libsming.a(stringconversion.o)
 .data          0x00000000        0x0 c:/tools/sming/Sming/compiler/lib/\libsming.a(stringconversion.o)
 .bss           0x00000000        0x0 c:/tools/sming/Sming/compiler/lib/\libsming.a(stringconversion.o)
 .xt.lit        0x00000000       0x30 c:/tools/sming/Sming/compiler/lib/\libsming.a(stringconversion.o)
 .xt.prop       0x00000000      0x294 c:/tools/sming/Sming/compiler/lib/\libsming.a(stringconversion.o)
 .group         0x00000000       0x14 c:/tools/sming/Sming/compiler/lib/\libsming.a(IPAddress.o)
 .group         0x00000000        0xc c:/tools/sming/Sming/compiler/lib/\libsming.a(IPAddress.o)
 .literal._ZNK9IPAddress7printToER5Print
                0x00000000        0x0 c:/tools/sming/Sming/compiler/lib/\libsming.a(IPAddress.o)
 .literal._ZN17ESP01_DescriptionC5Ev
                0x00000000        0x0 c:/tools/sming/Sming/compiler/lib/\libsming.a(IPAddress.o)
 .literal._ZN9IPAddressC2Ev
                0x00000000        0x0 c:/tools/sming/Sming/compiler/lib/\libsming.a(IPAddress.o)
 .literal._ZN9IPAddressC2Ehhhh
                0x00000000        0x0 c:/tools/sming/Sming/compiler/lib/\libsming.a(IPAddress.o)
 .literal._ZN9IPAddressC2Ej
                0x00000000        0x0 c:/tools/sming/Sming/compiler/lib/\libsming.a(IPAddress.o)
 .literal._ZN9IPAddressC2E7ip_addr
                0x00000000        0x0 c:/tools/sming/Sming/compiler/lib/\libsming.a(IPAddress.o)
 .literal._ZN9IPAddressC2EPKh
                0x00000000        0x0 c:/tools/sming/Sming/compiler/lib/\libsming.a(IPAddress.o)
 .literal._ZN9IPAddress10fromStringERK6String
                0x00000000        0x0 c:/tools/sming/Sming/compiler/lib/\libsming.a(IPAddress.o)
 .literal._ZN9IPAddressC2E6String
                0x00000000        0x0 c:/tools/sming/Sming/compiler/lib/\libsming.a(IPAddress.o)
 .literal._ZN9IPAddressaSEPKh
                0x00000000        0x0 c:/tools/sming/Sming/compiler/lib/\libsming.a(IPAddress.o)
 .literal._ZN9IPAddressaSEj
                0x00000000        0x0 c:/tools/sming/Sming/compiler/lib/\libsming.a(IPAddress.o)
 .literal._ZN9IPAddressaSE6String
                0x00000000        0x0 c:/tools/sming/Sming/compiler/lib/\libsming.a(IPAddress.o)
 .literal._ZN9IPAddresseqEPKh
                0x00000000        0x0 c:/tools/sming/Sming/compiler/lib/\libsming.a(IPAddress.o)
 .literal._ZN9IPAddress8toStringEv
                0x00000000        0x0 c:/tools/sming/Sming/compiler/lib/\libsming.a(IPAddress.o)
 .literal.startup._GLOBAL__sub_I__ZN9IPAddressC2Ev
                0x00000000        0x0 c:/tools/sming/Sming/compiler/lib/\libsming.a(IPAddress.o)
 .text          0x00000000        0x0 c:/tools/sming/Sming/compiler/lib/\libsming.a(IPAddress.o)
 .data          0x00000000        0x0 c:/tools/sming/Sming/compiler/lib/\libsming.a(IPAddress.o)
 .bss           0x00000000        0x0 c:/tools/sming/Sming/compiler/lib/\libsming.a(IPAddress.o)
 .text._ZN17ESP01_DescriptionC2Ev
                0x00000000       0x3f c:/tools/sming/Sming/compiler/lib/\libsming.a(IPAddress.o)
 .text._ZN9IPAddressC2Ev
                0x00000000       0x25 c:/tools/sming/Sming/compiler/lib/\libsming.a(IPAddress.o)
 .text._ZN9IPAddressC2Ej
                0x00000000       0x28 c:/tools/sming/Sming/compiler/lib/\libsming.a(IPAddress.o)
 .text._ZN9IPAddressC2E7ip_addr
                0x00000000       0x28 c:/tools/sming/Sming/compiler/lib/\libsming.a(IPAddress.o)
 .text._ZN9IPAddressC2EPKh
                0x00000000       0x25 c:/tools/sming/Sming/compiler/lib/\libsming.a(IPAddress.o)
 .rodata.str1.1
                0x00000000       0x10 c:/tools/sming/Sming/compiler/lib/\libsming.a(IPAddress.o)
 .text._ZN9IPAddress10fromStringERK6String
                0x00000000       0xbf c:/tools/sming/Sming/compiler/lib/\libsming.a(IPAddress.o)
 .text._ZN9IPAddressC2E6String
                0x00000000       0x1f c:/tools/sming/Sming/compiler/lib/\libsming.a(IPAddress.o)
 .text._ZN9IPAddressaSEPKh
                0x00000000       0x1a c:/tools/sming/Sming/compiler/lib/\libsming.a(IPAddress.o)
 .text._ZN9IPAddressaSEj
                0x00000000       0x1d c:/tools/sming/Sming/compiler/lib/\libsming.a(IPAddress.o)
 .text._ZN9IPAddressaSE6String
                0x00000000       0x1f c:/tools/sming/Sming/compiler/lib/\libsming.a(IPAddress.o)
 .text._ZN9IPAddresseqEPKh
                0x00000000       0x28 c:/tools/sming/Sming/compiler/lib/\libsming.a(IPAddress.o)
 .text._ZN9IPAddress8toStringEv
                0x00000000       0x6b c:/tools/sming/Sming/compiler/lib/\libsming.a(IPAddress.o)
 .rodata._ZL14EspDigitalPins
                0x00000000       0xc0 c:/tools/sming/Sming/compiler/lib/\libsming.a(IPAddress.o)
 .xt.lit        0x00000000       0x60 c:/tools/sming/Sming/compiler/lib/\libsming.a(IPAddress.o)
 .xt.lit._ZN17ESP01_DescriptionC2Ev
                0x00000000        0x8 c:/tools/sming/Sming/compiler/lib/\libsming.a(IPAddress.o)
 .xt.prop       0x00000000      0x258 c:/tools/sming/Sming/compiler/lib/\libsming.a(IPAddress.o)
 .xt.prop._ZN17ESP01_DescriptionC2Ev
                0x00000000       0x24 c:/tools/sming/Sming/compiler/lib/\libsming.a(IPAddress.o)
 .group         0x00000000       0x14 c:/tools/sming/Sming/compiler/lib/\libsming.a(Print.o)
 .group         0x00000000        0xc c:/tools/sming/Sming/compiler/lib/\libsming.a(Print.o)
 .literal._ZN5Print5writeEPKhj
                0x00000000        0x0 c:/tools/sming/Sming/compiler/lib/\libsming.a(Print.o)
 .literal._ZN5Print5printEc
                0x00000000        0x0 c:/tools/sming/Sming/compiler/lib/\libsming.a(Print.o)
 .literal._ZN5Print5printEPKc
                0x00000000        0x0 c:/tools/sming/Sming/compiler/lib/\libsming.a(Print.o)
 .literal._ZN5Print5printERK9Printable
                0x00000000        0x0 c:/tools/sming/Sming/compiler/lib/\libsming.a(Print.o)
 .literal._ZN5Print5printERK6String
                0x00000000        0x0 c:/tools/sming/Sming/compiler/lib/\libsming.a(Print.o)
 .literal._ZN5Print7printlnEv
                0x00000000        0x0 c:/tools/sming/Sming/compiler/lib/\libsming.a(Print.o)
 .literal._ZN5Print7printlnERK6String
                0x00000000        0x0 c:/tools/sming/Sming/compiler/lib/\libsming.a(Print.o)
 .literal._ZN5Print7printlnEc
                0x00000000        0x0 c:/tools/sming/Sming/compiler/lib/\libsming.a(Print.o)
 .literal._ZN5Print7printlnEPKc
                0x00000000        0x0 c:/tools/sming/Sming/compiler/lib/\libsming.a(Print.o)
 .literal._ZN5Print7printlnERK9Printable
                0x00000000        0x0 c:/tools/sming/Sming/compiler/lib/\libsming.a(Print.o)
 .literal._ZN5Print6printfEPKcz
                0x00000000        0x0 c:/tools/sming/Sming/compiler/lib/\libsming.a(Print.o)
 .literal._ZN5Print11printNumberEmh
                0x00000000        0x0 c:/tools/sming/Sming/compiler/lib/\libsming.a(Print.o)
 .literal._ZN5Print5printEmi
                0x00000000        0x0 c:/tools/sming/Sming/compiler/lib/\libsming.a(Print.o)
 .literal._ZN5Print5printEji
                0x00000000        0x0 c:/tools/sming/Sming/compiler/lib/\libsming.a(Print.o)
 .literal._ZN5Print7printlnEji
                0x00000000        0x0 c:/tools/sming/Sming/compiler/lib/\libsming.a(Print.o)
 .literal._ZN5Print5printEhi
                0x00000000        0x0 c:/tools/sming/Sming/compiler/lib/\libsming.a(Print.o)
 .literal._ZN5Print7printlnEhi
                0x00000000        0x0 c:/tools/sming/Sming/compiler/lib/\libsming.a(Print.o)
 .literal._ZN5Print7printlnEmi
                0x00000000        0x0 c:/tools/sming/Sming/compiler/lib/\libsming.a(Print.o)
 .literal._ZN5Print5printEli
                0x00000000        0x0 c:/tools/sming/Sming/compiler/lib/\libsming.a(Print.o)
 .literal._ZN5Print5printEii
                0x00000000        0x0 c:/tools/sming/Sming/compiler/lib/\libsming.a(Print.o)
 .literal._ZN5Print7printlnEii
                0x00000000        0x0 c:/tools/sming/Sming/compiler/lib/\libsming.a(Print.o)
 .literal._ZN5Print7printlnEli
                0x00000000        0x0 c:/tools/sming/Sming/compiler/lib/\libsming.a(Print.o)
 .literal._ZN5Print10printFloatEdh
                0x00000000        0x0 c:/tools/sming/Sming/compiler/lib/\libsming.a(Print.o)
 .literal._ZN5Print5printEdi
                0x00000000        0x0 c:/tools/sming/Sming/compiler/lib/\libsming.a(Print.o)
 .literal._ZN5Print7printlnEdi
                0x00000000        0x0 c:/tools/sming/Sming/compiler/lib/\libsming.a(Print.o)
 .literal.startup._GLOBAL__sub_I__ZN5Print5writeEPKhj
                0x00000000        0x0 c:/tools/sming/Sming/compiler/lib/\libsming.a(Print.o)
 .text          0x00000000        0x0 c:/tools/sming/Sming/compiler/lib/\libsming.a(Print.o)
 .data          0x00000000        0x0 c:/tools/sming/Sming/compiler/lib/\libsming.a(Print.o)
 .bss           0x00000000        0x0 c:/tools/sming/Sming/compiler/lib/\libsming.a(Print.o)
 .text._ZN5Print5writeEPKhj
                0x00000000       0x3d c:/tools/sming/Sming/compiler/lib/\libsming.a(Print.o)
 .text._ZN5Print5printEPKc
                0x00000000       0x17 c:/tools/sming/Sming/compiler/lib/\libsming.a(Print.o)
 .text._ZN5Print5printERK9Printable
                0x00000000       0x19 c:/tools/sming/Sming/compiler/lib/\libsming.a(Print.o)
 .text._ZN5Print5printERK6String
                0x00000000       0x18 c:/tools/sming/Sming/compiler/lib/\libsming.a(Print.o)
 .text._ZN5Print7printlnEv
                0x00000000       0x35 c:/tools/sming/Sming/compiler/lib/\libsming.a(Print.o)
 .text._ZN5Print7printlnERK6String
                0x00000000       0x31 c:/tools/sming/Sming/compiler/lib/\libsming.a(Print.o)
 .text._ZN5Print7printlnEc
                0x00000000       0x33 c:/tools/sming/Sming/compiler/lib/\libsming.a(Print.o)
 .text._ZN5Print7printlnEPKc
                0x00000000       0x31 c:/tools/sming/Sming/compiler/lib/\libsming.a(Print.o)
 .text._ZN5Print7printlnERK9Printable
                0x00000000       0x31 c:/tools/sming/Sming/compiler/lib/\libsming.a(Print.o)
 .text._ZN5Print6printfEPKcz
                0x00000000       0x95 c:/tools/sming/Sming/compiler/lib/\libsming.a(Print.o)
 .text._ZN5Print5printEji
                0x00000000       0x17 c:/tools/sming/Sming/compiler/lib/\libsming.a(Print.o)
 .text._ZN5Print7printlnEji
                0x00000000       0x31 c:/tools/sming/Sming/compiler/lib/\libsming.a(Print.o)
 .text._ZN5Print7printlnEhi
                0x00000000       0x33 c:/tools/sming/Sming/compiler/lib/\libsming.a(Print.o)
 .text._ZN5Print7printlnEmi
                0x00000000       0x31 c:/tools/sming/Sming/compiler/lib/\libsming.a(Print.o)
 .text._ZN5Print5printEli
                0x00000000       0x6b c:/tools/sming/Sming/compiler/lib/\libsming.a(Print.o)
 .text._ZN5Print5printEii
                0x00000000       0x17 c:/tools/sming/Sming/compiler/lib/\libsming.a(Print.o)
 .text._ZN5Print7printlnEii
                0x00000000       0x31 c:/tools/sming/Sming/compiler/lib/\libsming.a(Print.o)
 .text._ZN5Print7printlnEli
                0x00000000       0x31 c:/tools/sming/Sming/compiler/lib/\libsming.a(Print.o)
 .rodata.str1.1
                0x00000000        0xe c:/tools/sming/Sming/compiler/lib/\libsming.a(Print.o)
 .text._ZN5Print10printFloatEdh
                0x00000000      0x209 c:/tools/sming/Sming/compiler/lib/\libsming.a(Print.o)
 .text._ZN5Print5printEdi
                0x00000000       0x19 c:/tools/sming/Sming/compiler/lib/\libsming.a(Print.o)
 .text._ZN5Print7printlnEdi
                0x00000000       0x31 c:/tools/sming/Sming/compiler/lib/\libsming.a(Print.o)
 .rodata._ZTV5Print
                0x00000000       0x10 c:/tools/sming/Sming/compiler/lib/\libsming.a(Print.o)
 .xt.lit        0x00000000       0xb0 c:/tools/sming/Sming/compiler/lib/\libsming.a(Print.o)
 .xt.prop       0x00000000      0x4ec c:/tools/sming/Sming/compiler/lib/\libsming.a(Print.o)
 .xt.prop._ZTV5Print
                0x00000000        0xc c:/tools/sming/Sming/compiler/lib/\libsming.a(Print.o)
 .iram.literal  0x00000000        0x0 c:/tools/sming/Sming/compiler/lib/\libsming.a(WString.o)
 .literal._ZN6StringD2Ev
                0x00000000        0x0 c:/tools/sming/Sming/compiler/lib/\libsming.a(WString.o)
 .literal._ZN6String7reserveEj
                0x00000000        0x0 c:/tools/sming/Sming/compiler/lib/\libsming.a(WString.o)
 .literal._ZN6String4copyEPKcj
                0x00000000        0x0 c:/tools/sming/Sming/compiler/lib/\libsming.a(WString.o)
 .literal._ZN6StringC2Ec
                0x00000000        0x0 c:/tools/sming/Sming/compiler/lib/\libsming.a(WString.o)
 .literal._ZN6StringC2Ehh
                0x00000000        0x0 c:/tools/sming/Sming/compiler/lib/\libsming.a(WString.o)
 .literal._ZN6StringC2Eih
                0x00000000        0x0 c:/tools/sming/Sming/compiler/lib/\libsming.a(WString.o)
 .literal._ZN6StringC2Ejh
                0x00000000        0x0 c:/tools/sming/Sming/compiler/lib/\libsming.a(WString.o)
 .literal._ZN6StringC2Elh
                0x00000000        0x0 c:/tools/sming/Sming/compiler/lib/\libsming.a(WString.o)
 .literal._ZN6StringC2Emh
                0x00000000        0x0 c:/tools/sming/Sming/compiler/lib/\libsming.a(WString.o)
 .literal._ZN6StringC2Efh
                0x00000000        0x0 c:/tools/sming/Sming/compiler/lib/\libsming.a(WString.o)
 .literal._ZN6StringC2Edh
                0x00000000        0x0 c:/tools/sming/Sming/compiler/lib/\libsming.a(WString.o)
 .literal._ZN6String9setStringEPKci
                0x00000000        0x0 c:/tools/sming/Sming/compiler/lib/\libsming.a(WString.o)
 .literal._ZN6String4moveERS_
                0x00000000        0x0 c:/tools/sming/Sming/compiler/lib/\libsming.a(WString.o)
 .literal._ZN6StringaSEOS_
                0x00000000        0x0 c:/tools/sming/Sming/compiler/lib/\libsming.a(WString.o)
 .literal._ZN6StringaSEO15StringSumHelper
                0x00000000        0x0 c:/tools/sming/Sming/compiler/lib/\libsming.a(WString.o)
 .literal._ZN6String6concatERKS_
                0x00000000        0x0 c:/tools/sming/Sming/compiler/lib/\libsming.a(WString.o)
 .literal._ZN6String6concatEPKc
                0x00000000        0x0 c:/tools/sming/Sming/compiler/lib/\libsming.a(WString.o)
 .literal._ZN6String6concatEc
                0x00000000        0x0 c:/tools/sming/Sming/compiler/lib/\libsming.a(WString.o)
 .literal._ZN6String6concatEh
                0x00000000        0x0 c:/tools/sming/Sming/compiler/lib/\libsming.a(WString.o)
 .literal._ZN6String6concatEi
                0x00000000        0x0 c:/tools/sming/Sming/compiler/lib/\libsming.a(WString.o)
 .literal._ZN6String6concatEj
                0x00000000        0x0 c:/tools/sming/Sming/compiler/lib/\libsming.a(WString.o)
 .literal._ZN6String6concatEl
                0x00000000        0x0 c:/tools/sming/Sming/compiler/lib/\libsming.a(WString.o)
 .literal._ZN6String6concatEm
                0x00000000        0x0 c:/tools/sming/Sming/compiler/lib/\libsming.a(WString.o)
 .literal._ZN6String6concatEf
                0x00000000        0x0 c:/tools/sming/Sming/compiler/lib/\libsming.a(WString.o)
 .literal._ZN6String6concatEd
                0x00000000        0x0 c:/tools/sming/Sming/compiler/lib/\libsming.a(WString.o)
 .literal._ZplRK15StringSumHelperRK6String
                0x00000000        0x0 c:/tools/sming/Sming/compiler/lib/\libsming.a(WString.o)
 .literal._ZplRK15StringSumHelperPKc
                0x00000000        0x0 c:/tools/sming/Sming/compiler/lib/\libsming.a(WString.o)
 .literal._ZplRK15StringSumHelperc
                0x00000000        0x0 c:/tools/sming/Sming/compiler/lib/\libsming.a(WString.o)
 .literal._ZplRK15StringSumHelperh
                0x00000000        0x0 c:/tools/sming/Sming/compiler/lib/\libsming.a(WString.o)
 .literal._ZplRK15StringSumHelperi
                0x00000000        0x0 c:/tools/sming/Sming/compiler/lib/\libsming.a(WString.o)
 .literal._ZplRK15StringSumHelperj
                0x00000000        0x0 c:/tools/sming/Sming/compiler/lib/\libsming.a(WString.o)
 .literal._ZplRK15StringSumHelperl
                0x00000000        0x0 c:/tools/sming/Sming/compiler/lib/\libsming.a(WString.o)
 .literal._ZplRK15StringSumHelperm
                0x00000000        0x0 c:/tools/sming/Sming/compiler/lib/\libsming.a(WString.o)
 .literal._ZplRK15StringSumHelperf
                0x00000000        0x0 c:/tools/sming/Sming/compiler/lib/\libsming.a(WString.o)
 .literal._ZplRK15StringSumHelperd
                0x00000000        0x0 c:/tools/sming/Sming/compiler/lib/\libsming.a(WString.o)
 .literal._ZNK6StringltERKS_
                0x00000000        0x0 c:/tools/sming/Sming/compiler/lib/\libsming.a(WString.o)
 .literal._ZNK6StringgtERKS_
                0x00000000        0x0 c:/tools/sming/Sming/compiler/lib/\libsming.a(WString.o)
 .literal._ZNK6StringleERKS_
                0x00000000        0x0 c:/tools/sming/Sming/compiler/lib/\libsming.a(WString.o)
 .literal._ZNK6StringgeERKS_
                0x00000000        0x0 c:/tools/sming/Sming/compiler/lib/\libsming.a(WString.o)
 .literal._ZNK6String16equalsIgnoreCaseERKS_
                0x00000000        0x0 c:/tools/sming/Sming/compiler/lib/\libsming.a(WString.o)
 .literal._ZNK6String10startsWithERKS_j
                0x00000000        0x0 c:/tools/sming/Sming/compiler/lib/\libsming.a(WString.o)
 .literal._ZNK6String10startsWithERKS_
                0x00000000        0x0 c:/tools/sming/Sming/compiler/lib/\libsming.a(WString.o)
 .literal._ZNK6String8endsWithERKS_
                0x00000000        0x0 c:/tools/sming/Sming/compiler/lib/\libsming.a(WString.o)
 .literal._ZNK6String8getBytesEPhjj
                0x00000000        0x0 c:/tools/sming/Sming/compiler/lib/\libsming.a(WString.o)
 .literal._ZNK6String7indexOfEcj
                0x00000000        0x0 c:/tools/sming/Sming/compiler/lib/\libsming.a(WString.o)
 .literal._ZNK6String7indexOfERKS_j
                0x00000000        0x0 c:/tools/sming/Sming/compiler/lib/\libsming.a(WString.o)
 .literal._ZNK6String11lastIndexOfEci
                0x00000000        0x0 c:/tools/sming/Sming/compiler/lib/\libsming.a(WString.o)
 .literal._ZNK6String11lastIndexOfEc
                0x00000000        0x0 c:/tools/sming/Sming/compiler/lib/\libsming.a(WString.o)
 .literal._ZNK6String11lastIndexOfERKS_i
                0x00000000        0x0 c:/tools/sming/Sming/compiler/lib/\libsming.a(WString.o)
 .literal._ZNK6String11lastIndexOfERKS_
                0x00000000        0x0 c:/tools/sming/Sming/compiler/lib/\libsming.a(WString.o)
 .literal._ZNK6String9substringEjj
                0x00000000        0x0 c:/tools/sming/Sming/compiler/lib/\libsming.a(WString.o)
 .literal._ZN6String7replaceEcc
                0x00000000        0x0 c:/tools/sming/Sming/compiler/lib/\libsming.a(WString.o)
 .literal._ZN6String7replaceERKS_S1_
                0x00000000        0x0 c:/tools/sming/Sming/compiler/lib/\libsming.a(WString.o)
 .literal._ZN6String6removeEjj
                0x00000000        0x0 c:/tools/sming/Sming/compiler/lib/\libsming.a(WString.o)
 .literal._ZN6String6removeEj
                0x00000000        0x0 c:/tools/sming/Sming/compiler/lib/\libsming.a(WString.o)
 .literal._ZN6String11toLowerCaseEv
                0x00000000        0x0 c:/tools/sming/Sming/compiler/lib/\libsming.a(WString.o)
 .literal._ZN6String11toUpperCaseEv
                0x00000000        0x0 c:/tools/sming/Sming/compiler/lib/\libsming.a(WString.o)
 .literal._ZN6String4trimEv
                0x00000000        0x0 c:/tools/sming/Sming/compiler/lib/\libsming.a(WString.o)
 .literal._ZNK6String5toIntEv
                0x00000000        0x0 c:/tools/sming/Sming/compiler/lib/\libsming.a(WString.o)
 .literal._ZNK6String7toFloatEv
                0x00000000        0x0 c:/tools/sming/Sming/compiler/lib/\libsming.a(WString.o)
 .literal.startup._GLOBAL__sub_I__ZN6StringC2EPKc
                0x00000000        0x0 c:/tools/sming/Sming/compiler/lib/\libsming.a(WString.o)
 .text          0x00000000        0x0 c:/tools/sming/Sming/compiler/lib/\libsming.a(WString.o)
 .data          0x00000000        0x0 c:/tools/sming/Sming/compiler/lib/\libsming.a(WString.o)
 .bss           0x00000000        0x0 c:/tools/sming/Sming/compiler/lib/\libsming.a(WString.o)
 .iram.text     0x00000000      0x340 c:/tools/sming/Sming/compiler/lib/\libsming.a(WString.o)
 .text._ZN6StringD2Ev
                0x00000000       0x18 c:/tools/sming/Sming/compiler/lib/\libsming.a(WString.o)
 .text._ZN6String7reserveEj
                0x00000000       0x39 c:/tools/sming/Sming/compiler/lib/\libsming.a(WString.o)
 .text._ZN6String4copyEPKcj
                0x00000000       0x5c c:/tools/sming/Sming/compiler/lib/\libsming.a(WString.o)
 .text._ZN6StringC2Ec
                0x00000000       0x28 c:/tools/sming/Sming/compiler/lib/\libsming.a(WString.o)
 .text._ZN6StringC2Ehh
                0x00000000       0x3d c:/tools/sming/Sming/compiler/lib/\libsming.a(WString.o)
 .text._ZN6StringC2Eih
                0x00000000       0x3b c:/tools/sming/Sming/compiler/lib/\libsming.a(WString.o)
 .text._ZN6StringC2Ejh
                0x00000000       0x3b c:/tools/sming/Sming/compiler/lib/\libsming.a(WString.o)
 .text._ZN6StringC2Elh
                0x00000000       0x3b c:/tools/sming/Sming/compiler/lib/\libsming.a(WString.o)
 .text._ZN6StringC2Emh
                0x00000000       0x3b c:/tools/sming/Sming/compiler/lib/\libsming.a(WString.o)
 .text._ZN6StringC2Efh
                0x00000000       0x51 c:/tools/sming/Sming/compiler/lib/\libsming.a(WString.o)
 .text._ZN6StringC2Edh
                0x00000000       0x3d c:/tools/sming/Sming/compiler/lib/\libsming.a(WString.o)
 .text._ZN6String9setStringEPKci
                0x00000000       0x35 c:/tools/sming/Sming/compiler/lib/\libsming.a(WString.o)
 .text._ZN6String4moveERS_
                0x00000000       0x41 c:/tools/sming/Sming/compiler/lib/\libsming.a(WString.o)
 .text._ZN6StringaSEOS_
                0x00000000       0x21 c:/tools/sming/Sming/compiler/lib/\libsming.a(WString.o)
 .text._ZN6StringaSEO15StringSumHelper
                0x00000000       0x21 c:/tools/sming/Sming/compiler/lib/\libsming.a(WString.o)
 .text._ZN6String6concatERKS_
                0x00000000       0x1b c:/tools/sming/Sming/compiler/lib/\libsming.a(WString.o)
 .text._ZN6String6concatEPKc
                0x00000000       0x35 c:/tools/sming/Sming/compiler/lib/\libsming.a(WString.o)
 .text._ZN6String6concatEc
                0x00000000       0x23 c:/tools/sming/Sming/compiler/lib/\libsming.a(WString.o)
 .text._ZN6String6concatEh
                0x00000000       0x3f c:/tools/sming/Sming/compiler/lib/\libsming.a(WString.o)
 .text._ZN6String6concatEi
                0x00000000       0x3e c:/tools/sming/Sming/compiler/lib/\libsming.a(WString.o)
 .text._ZN6String6concatEj
                0x00000000       0x3e c:/tools/sming/Sming/compiler/lib/\libsming.a(WString.o)
 .text._ZN6String6concatEl
                0x00000000       0x3e c:/tools/sming/Sming/compiler/lib/\libsming.a(WString.o)
 .text._ZN6String6concatEm
                0x00000000       0x3e c:/tools/sming/Sming/compiler/lib/\libsming.a(WString.o)
 .text._ZN6String6concatEf
                0x00000000       0x4f c:/tools/sming/Sming/compiler/lib/\libsming.a(WString.o)
 .text._ZN6String6concatEd
                0x00000000       0x47 c:/tools/sming/Sming/compiler/lib/\libsming.a(WString.o)
 .text._ZplRK15StringSumHelperRK6String
                0x00000000       0x31 c:/tools/sming/Sming/compiler/lib/\libsming.a(WString.o)
 .text._ZplRK15StringSumHelperPKc
                0x00000000       0x43 c:/tools/sming/Sming/compiler/lib/\libsming.a(WString.o)
 .text._ZplRK15StringSumHelperc
                0x00000000       0x2f c:/tools/sming/Sming/compiler/lib/\libsming.a(WString.o)
 .text._ZplRK15StringSumHelperh
                0x00000000       0x2f c:/tools/sming/Sming/compiler/lib/\libsming.a(WString.o)
 .text._ZplRK15StringSumHelperi
                0x00000000       0x2d c:/tools/sming/Sming/compiler/lib/\libsming.a(WString.o)
 .text._ZplRK15StringSumHelperj
                0x00000000       0x2d c:/tools/sming/Sming/compiler/lib/\libsming.a(WString.o)
 .text._ZplRK15StringSumHelperl
                0x00000000       0x2d c:/tools/sming/Sming/compiler/lib/\libsming.a(WString.o)
 .text._ZplRK15StringSumHelperm
                0x00000000       0x2d c:/tools/sming/Sming/compiler/lib/\libsming.a(WString.o)
 .text._ZplRK15StringSumHelperf
                0x00000000       0x2d c:/tools/sming/Sming/compiler/lib/\libsming.a(WString.o)
 .text._ZplRK15StringSumHelperd
                0x00000000       0x2d c:/tools/sming/Sming/compiler/lib/\libsming.a(WString.o)
 .text._ZNK6StringltERKS_
                0x00000000       0x1a c:/tools/sming/Sming/compiler/lib/\libsming.a(WString.o)
 .text._ZNK6StringgtERKS_
                0x00000000       0x20 c:/tools/sming/Sming/compiler/lib/\libsming.a(WString.o)
 .text._ZNK6StringleERKS_
                0x00000000       0x1f c:/tools/sming/Sming/compiler/lib/\libsming.a(WString.o)
 .text._ZNK6StringgeERKS_
                0x00000000       0x1f c:/tools/sming/Sming/compiler/lib/\libsming.a(WString.o)
 .text._ZNK6String16equalsIgnoreCaseERKS_
                0x00000000       0x5f c:/tools/sming/Sming/compiler/lib/\libsming.a(WString.o)
 .text._ZNK6String10startsWithERKS_j
                0x00000000       0x40 c:/tools/sming/Sming/compiler/lib/\libsming.a(WString.o)
 .text._ZNK6String10startsWithERKS_
                0x00000000       0x25 c:/tools/sming/Sming/compiler/lib/\libsming.a(WString.o)
 .text._ZNK6String8endsWithERKS_
                0x00000000       0x3f c:/tools/sming/Sming/compiler/lib/\libsming.a(WString.o)
 .text._ZNK6String8getBytesEPhjj
                0x00000000       0x57 c:/tools/sming/Sming/compiler/lib/\libsming.a(WString.o)
 .text._ZNK6String7indexOfEcj
                0x00000000       0x33 c:/tools/sming/Sming/compiler/lib/\libsming.a(WString.o)
 .text._ZNK6String7indexOfERKS_j
                0x00000000       0x33 c:/tools/sming/Sming/compiler/lib/\libsming.a(WString.o)
 .text._ZNK6String11lastIndexOfEci
                0x00000000       0x58 c:/tools/sming/Sming/compiler/lib/\libsming.a(WString.o)
 .text._ZNK6String11lastIndexOfEc
                0x00000000       0x1f c:/tools/sming/Sming/compiler/lib/\libsming.a(WString.o)
 .text._ZNK6String11lastIndexOfERKS_i
                0x00000000       0x7b c:/tools/sming/Sming/compiler/lib/\libsming.a(WString.o)
 .text._ZNK6String11lastIndexOfERKS_
                0x00000000       0x1f c:/tools/sming/Sming/compiler/lib/\libsming.a(WString.o)
 .rodata.str1.1
                0x00000000        0x1 c:/tools/sming/Sming/compiler/lib/\libsming.a(WString.o)
 .text._ZNK6String9substringEjj
                0x00000000       0x75 c:/tools/sming/Sming/compiler/lib/\libsming.a(WString.o)
 .text._ZN6String7replaceEcc
                0x00000000       0x1c c:/tools/sming/Sming/compiler/lib/\libsming.a(WString.o)
 .text._ZN6String7replaceERKS_S1_
                0x00000000      0x19b c:/tools/sming/Sming/compiler/lib/\libsming.a(WString.o)
 .text._ZN6String6removeEjj
                0x00000000       0x4f c:/tools/sming/Sming/compiler/lib/\libsming.a(WString.o)
 .text._ZN6String6removeEj
                0x00000000       0x1f c:/tools/sming/Sming/compiler/lib/\libsming.a(WString.o)
 .text._ZN6String11toLowerCaseEv
                0x00000000       0x2d c:/tools/sming/Sming/compiler/lib/\libsming.a(WString.o)
 .text._ZN6String11toUpperCaseEv
                0x00000000       0x2d c:/tools/sming/Sming/compiler/lib/\libsming.a(WString.o)
 .text._ZN6String4trimEv
                0x00000000       0x97 c:/tools/sming/Sming/compiler/lib/\libsming.a(WString.o)
 .text._ZNK6String5toIntEv
                0x00000000       0x1f c:/tools/sming/Sming/compiler/lib/\libsming.a(WString.o)
 .text._ZNK6String7toFloatEv
                0x00000000       0x2d c:/tools/sming/Sming/compiler/lib/\libsming.a(WString.o)
 .bss._ZZN6StringixEjE19dummy_writable_char
                0x00000000        0x1 c:/tools/sming/Sming/compiler/lib/\libsming.a(WString.o)
 .xt.lit        0x00000000      0x250 c:/tools/sming/Sming/compiler/lib/\libsming.a(WString.o)
 .xt.prop       0x00000000     0x1050 c:/tools/sming/Sming/compiler/lib/\libsming.a(WString.o)
 .group         0x00000000       0x10 c:/tools/sming/Sming/compiler/lib/\libsming.a(Interrupts.o)
 .group         0x00000000       0x10 c:/tools/sming/Sming/compiler/lib/\libsming.a(Interrupts.o)
 .iram.literal  0x00000000        0x0 c:/tools/sming/Sming/compiler/lib/\libsming.a(Interrupts.o)
 .literal._Z22attachInterruptHandlerh13GPIO_INT_TYPE
                0x00000000        0x0 c:/tools/sming/Sming/compiler/lib/\libsming.a(Interrupts.o)
 .literal._Z13interruptModeh13GPIO_INT_TYPE
                0x00000000        0x0 c:/tools/sming/Sming/compiler/lib/\libsming.a(Interrupts.o)
 .literal._Z13interruptModehh
                0x00000000        0x0 c:/tools/sming/Sming/compiler/lib/\libsming.a(Interrupts.o)
 .literal._Z27ConvertArduinoInterruptModeh
                0x00000000        0x0 c:/tools/sming/Sming/compiler/lib/\libsming.a(Interrupts.o)
 .literal._Z12noInterruptsv
                0x00000000        0x0 c:/tools/sming/Sming/compiler/lib/\libsming.a(Interrupts.o)
 .literal._Z10interruptsv
                0x00000000        0x0 c:/tools/sming/Sming/compiler/lib/\libsming.a(Interrupts.o)
 .literal._ZN8DelegateIFvvEEaSEOS1_
                0x00000000        0x0 c:/tools/sming/Sming/compiler/lib/\libsming.a(Interrupts.o)
 .literal._Z15attachInterrupthPFvvE13GPIO_INT_TYPE
                0x00000000        0x0 c:/tools/sming/Sming/compiler/lib/\libsming.a(Interrupts.o)
 .literal._Z15attachInterrupthPFvvEh
                0x00000000        0x0 c:/tools/sming/Sming/compiler/lib/\libsming.a(Interrupts.o)
 .literal._Z15detachInterrupth
                0x00000000        0x0 c:/tools/sming/Sming/compiler/lib/\libsming.a(Interrupts.o)
 .literal._Z15attachInterrupth8DelegateIFvvEE13GPIO_INT_TYPE
                0x00000000        0x0 c:/tools/sming/Sming/compiler/lib/\libsming.a(Interrupts.o)
 .literal._Z15attachInterrupth8DelegateIFvvEEh
                0x00000000        0x0 c:/tools/sming/Sming/compiler/lib/\libsming.a(Interrupts.o)
 .literal.startup._GLOBAL__sub_I__gpioInterruptsList
                0x00000000        0x0 c:/tools/sming/Sming/compiler/lib/\libsming.a(Interrupts.o)
 .literal.exit._GLOBAL__sub_D__gpioInterruptsList
                0x00000000        0x0 c:/tools/sming/Sming/compiler/lib/\libsming.a(Interrupts.o)
 .text          0x00000000        0x0 c:/tools/sming/Sming/compiler/lib/\libsming.a(Interrupts.o)
 .data          0x00000000        0x0 c:/tools/sming/Sming/compiler/lib/\libsming.a(Interrupts.o)
 .bss           0x00000000        0x0 c:/tools/sming/Sming/compiler/lib/\libsming.a(Interrupts.o)
 .iram.text     0x00000000       0x92 c:/tools/sming/Sming/compiler/lib/\libsming.a(Interrupts.o)
 .text._Z22attachInterruptHandlerh13GPIO_INT_TYPE
                0x00000000       0x77 c:/tools/sming/Sming/compiler/lib/\libsming.a(Interrupts.o)
 .text._Z13interruptModeh13GPIO_INT_TYPE
                0x00000000       0x4d c:/tools/sming/Sming/compiler/lib/\libsming.a(Interrupts.o)
 .text._Z13interruptModehh
                0x00000000       0x31 c:/tools/sming/Sming/compiler/lib/\libsming.a(Interrupts.o)
 .text._Z27ConvertArduinoInterruptModeh
                0x00000000       0x18 c:/tools/sming/Sming/compiler/lib/\libsming.a(Interrupts.o)
 .text._Z12noInterruptsv
                0x00000000       0x17 c:/tools/sming/Sming/compiler/lib/\libsming.a(Interrupts.o)
 .text._Z10interruptsv
                0x00000000       0x17 c:/tools/sming/Sming/compiler/lib/\libsming.a(Interrupts.o)
 .text._ZN8DelegateIFvvEEaSEOS1_
                0x00000000       0x39 c:/tools/sming/Sming/compiler/lib/\libsming.a(Interrupts.o)
 .text._Z15attachInterrupthPFvvE13GPIO_INT_TYPE
                0x00000000       0x67 c:/tools/sming/Sming/compiler/lib/\libsming.a(Interrupts.o)
 .text._Z15attachInterrupthPFvvEh
                0x00000000       0x31 c:/tools/sming/Sming/compiler/lib/\libsming.a(Interrupts.o)
 .text._Z15detachInterrupth
                0x00000000       0x5b c:/tools/sming/Sming/compiler/lib/\libsming.a(Interrupts.o)
 .text._Z15attachInterrupth8DelegateIFvvEE13GPIO_INT_TYPE
                0x00000000       0x4f c:/tools/sming/Sming/compiler/lib/\libsming.a(Interrupts.o)
 .text._Z15attachInterrupth8DelegateIFvvEEh
                0x00000000       0x60 c:/tools/sming/Sming/compiler/lib/\libsming.a(Interrupts.o)
 .rodata.CSWTCH$10
                0x00000000       0x21 c:/tools/sming/Sming/compiler/lib/\libsming.a(Interrupts.o)
 .bss._gpioInterruptsInitialied
                0x00000000        0x1 c:/tools/sming/Sming/compiler/lib/\libsming.a(Interrupts.o)
 .bss._gpioInterruptsList
                0x00000000       0x40 c:/tools/sming/Sming/compiler/lib/\libsming.a(Interrupts.o)
 .xt.lit        0x00000000       0x70 c:/tools/sming/Sming/compiler/lib/\libsming.a(Interrupts.o)
 .xt.prop       0x00000000      0x300 c:/tools/sming/Sming/compiler/lib/\libsming.a(Interrupts.o)
 .xt.prop._ZN8DelegateIFvvEEaSEOS1_
                0x00000000       0x30 c:/tools/sming/Sming/compiler/lib/\libsming.a(Interrupts.o)
 .literal._Z10isInputPint
                0x00000000        0x0 c:/tools/sming/Sming/compiler/lib/\libsming.a(Digital.o)
 .literal._Z11digitalReadt
                0x00000000        0x0 c:/tools/sming/Sming/compiler/lib/\libsming.a(Digital.o)
 .literal._Z6pullupt
                0x00000000        0x0 c:/tools/sming/Sming/compiler/lib/\libsming.a(Digital.o)
 .literal._Z7pinModeth
                0x00000000        0x0 c:/tools/sming/Sming/compiler/lib/\libsming.a(Digital.o)
 .literal._Z8noPullupt
                0x00000000        0x0 c:/tools/sming/Sming/compiler/lib/\libsming.a(Digital.o)
 .literal._Z12digitalWriteth
                0x00000000        0x0 c:/tools/sming/Sming/compiler/lib/\libsming.a(Digital.o)
 .literal._Z7pulseInthm
                0x00000000        0x0 c:/tools/sming/Sming/compiler/lib/\libsming.a(Digital.o)
 .literal.startup._GLOBAL__sub_I__Z7pinModeth
                0x00000000        0x0 c:/tools/sming/Sming/compiler/lib/\libsming.a(Digital.o)
 .text          0x00000000        0x0 c:/tools/sming/Sming/compiler/lib/\libsming.a(Digital.o)
 .data          0x00000000        0x0 c:/tools/sming/Sming/compiler/lib/\libsming.a(Digital.o)
 .bss           0x00000000        0x0 c:/tools/sming/Sming/compiler/lib/\libsming.a(Digital.o)
 .text._Z11digitalReadt
                0x00000000       0x2d c:/tools/sming/Sming/compiler/lib/\libsming.a(Digital.o)
 .text._Z7pulseInthm
                0x00000000       0xd7 c:/tools/sming/Sming/compiler/lib/\libsming.a(Digital.o)
 .xt.lit        0x00000000       0x40 c:/tools/sming/Sming/compiler/lib/\libsming.a(Digital.o)
 .xt.prop       0x00000000      0x2f4 c:/tools/sming/Sming/compiler/lib/\libsming.a(Digital.o)
 .group         0x00000000       0x14 out/build/app_app.a(application.o)
 .literal._Z4loopv
                0x00000000        0x0 out/build/app_app.a(application.o)
 .literal._ZN17ESP01_DescriptionC5Ev
                0x00000000        0x0 out/build/app_app.a(application.o)
 .literal._Z4initv
                0x00000000        0x0 out/build/app_app.a(application.o)
 .literal.startup._GLOBAL__sub_I_procTimer
                0x00000000        0x0 out/build/app_app.a(application.o)
 .literal.exit._GLOBAL__sub_D_procTimer
                0x00000000        0x0 out/build/app_app.a(application.o)
 .text          0x00000000        0x0 out/build/app_app.a(application.o)
 .data          0x00000000        0x0 out/build/app_app.a(application.o)
 .bss           0x00000000        0x0 out/build/app_app.a(application.o)
 .text._ZN17ESP01_DescriptionC2Ev
                0x00000000       0x3f out/build/app_app.a(application.o)
 .rodata._ZL14EspDigitalPins
                0x00000000       0xc0 out/build/app_app.a(application.o)
 .xt.lit        0x00000000       0x20 out/build/app_app.a(application.o)
 .xt.lit._ZN17ESP01_DescriptionC2Ev
                0x00000000        0x8 out/build/app_app.a(application.o)
 .xt.prop       0x00000000       0xd8 out/build/app_app.a(application.o)
 .xt.prop._ZN17ESP01_DescriptionC2Ev
                0x00000000       0x24 out/build/app_app.a(application.o)
 .irom0.text    0x00000000       0x1c c:/tools/sming/Sming/compiler/lib/\libmicroc.a(isspace.o)
 .data          0x00000000        0x0 c:/tools/sming/Sming/compiler/lib/\libmicroc.a(isspace.o)
 .bss           0x00000000        0x0 c:/tools/sming/Sming/compiler/lib/\libmicroc.a(isspace.o)
 .xt.prop       0x00000000       0x30 c:/tools/sming/Sming/compiler/lib/\libmicroc.a(isspace.o)
 .irom0.text    0x00000000        0xf c:/tools/sming/Sming/compiler/lib/\libmicroc.a(tolower.o)
 .data          0x00000000        0x0 c:/tools/sming/Sming/compiler/lib/\libmicroc.a(tolower.o)
 .bss           0x00000000        0x0 c:/tools/sming/Sming/compiler/lib/\libmicroc.a(tolower.o)
 .xt.prop       0x00000000       0x30 c:/tools/sming/Sming/compiler/lib/\libmicroc.a(tolower.o)
 .irom0.text    0x00000000        0xf c:/tools/sming/Sming/compiler/lib/\libmicroc.a(toupper.o)
 .data          0x00000000        0x0 c:/tools/sming/Sming/compiler/lib/\libmicroc.a(toupper.o)
 .bss           0x00000000        0x0 c:/tools/sming/Sming/compiler/lib/\libmicroc.a(toupper.o)
 .xt.prop       0x00000000       0x30 c:/tools/sming/Sming/compiler/lib/\libmicroc.a(toupper.o)
 .irom0.literal
                0x00000000        0x4 c:/tools/sming/Sming/compiler/lib/\libmicroc.a(atof.o)
 .irom0.text    0x00000000       0x14 c:/tools/sming/Sming/compiler/lib/\libmicroc.a(atof.o)
 .data          0x00000000        0x0 c:/tools/sming/Sming/compiler/lib/\libmicroc.a(atof.o)
 .bss           0x00000000        0x0 c:/tools/sming/Sming/compiler/lib/\libmicroc.a(atof.o)
 .xt.lit        0x00000000        0x8 c:/tools/sming/Sming/compiler/lib/\libmicroc.a(atof.o)
 .xt.prop       0x00000000       0x30 c:/tools/sming/Sming/compiler/lib/\libmicroc.a(atof.o)
 .irom0.text    0x00000000       0x55 c:/tools/sming/Sming/compiler/lib/\libmicroc.a(atoi.o)
 .data          0x00000000        0x0 c:/tools/sming/Sming/compiler/lib/\libmicroc.a(atoi.o)
 .bss           0x00000000        0x0 c:/tools/sming/Sming/compiler/lib/\libmicroc.a(atoi.o)
 .xt.prop       0x00000000       0x60 c:/tools/sming/Sming/compiler/lib/\libmicroc.a(atoi.o)
 .irom0.literal
                0x00000000       0x10 c:/tools/sming/Sming/compiler/lib/\libmicroc.a(strtod.o)
 .irom0.text    0x00000000       0xb1 c:/tools/sming/Sming/compiler/lib/\libmicroc.a(strtod.o)
 .data          0x00000000        0x0 c:/tools/sming/Sming/compiler/lib/\libmicroc.a(strtod.o)
 .bss           0x00000000        0x0 c:/tools/sming/Sming/compiler/lib/\libmicroc.a(strtod.o)
 .xt.lit        0x00000000        0x8 c:/tools/sming/Sming/compiler/lib/\libmicroc.a(strtod.o)
 .xt.prop       0x00000000       0x84 c:/tools/sming/Sming/compiler/lib/\libmicroc.a(strtod.o)
 .irom0.literal
                0x00000000        0x0 c:/tools/sming/Sming/compiler/lib/\libmicroc.a(__fpclassify.o)
 .data          0x00000000        0x0 c:/tools/sming/Sming/compiler/lib/\libmicroc.a(__fpclassify.o)
 .bss           0x00000000        0x0 c:/tools/sming/Sming/compiler/lib/\libmicroc.a(__fpclassify.o)
 .xt.prop       0x00000000       0x6c c:/tools/sming/Sming/compiler/lib/\libmicroc.a(__fpclassify.o)
 .irom0.literal
                0x00000000        0x4 c:/tools/sming/Sming/compiler/lib/\libmicroc.a(strchr.o)
 .irom0.text    0x00000000       0x29 c:/tools/sming/Sming/compiler/lib/\libmicroc.a(strchr.o)
 .data          0x00000000        0x0 c:/tools/sming/Sming/compiler/lib/\libmicroc.a(strchr.o)
 .bss           0x00000000        0x0 c:/tools/sming/Sming/compiler/lib/\libmicroc.a(strchr.o)
 .xt.lit        0x00000000        0x8 c:/tools/sming/Sming/compiler/lib/\libmicroc.a(strchr.o)
 .xt.prop       0x00000000       0x30 c:/tools/sming/Sming/compiler/lib/\libmicroc.a(strchr.o)
 .irom0.literal
                0x00000000        0x4 c:/tools/sming/Sming/compiler/lib/\libmicroc.a(strrchr.o)
 .irom0.text    0x00000000       0x13 c:/tools/sming/Sming/compiler/lib/\libmicroc.a(strrchr.o)
 .data          0x00000000        0x0 c:/tools/sming/Sming/compiler/lib/\libmicroc.a(strrchr.o)
 .bss           0x00000000        0x0 c:/tools/sming/Sming/compiler/lib/\libmicroc.a(strrchr.o)
 .xt.lit        0x00000000        0x8 c:/tools/sming/Sming/compiler/lib/\libmicroc.a(strrchr.o)
 .xt.prop       0x00000000       0x30 c:/tools/sming/Sming/compiler/lib/\libmicroc.a(strrchr.o)
 .irom0.literal
                0x00000000        0xc c:/tools/sming/Sming/compiler/lib/\libmicroc.a(strchrnul.o)
 .irom0.text    0x00000000       0x75 c:/tools/sming/Sming/compiler/lib/\libmicroc.a(strchrnul.o)
 .data          0x00000000        0x0 c:/tools/sming/Sming/compiler/lib/\libmicroc.a(strchrnul.o)
 .bss           0x00000000        0x0 c:/tools/sming/Sming/compiler/lib/\libmicroc.a(strchrnul.o)
 .xt.lit        0x00000000        0x8 c:/tools/sming/Sming/compiler/lib/\libmicroc.a(strchrnul.o)
 .xt.prop       0x00000000       0x90 c:/tools/sming/Sming/compiler/lib/\libmicroc.a(strchrnul.o)
 .data          0x00000000        0x0 c:/tools/sming/Sming/compiler/lib/\libmicroc.a(malloc.o)
 .bss           0x00000000        0x0 c:/tools/sming/Sming/compiler/lib/\libmicroc.a(malloc.o)
 .xt.lit        0x00000000        0x8 c:/tools/sming/Sming/compiler/lib/\libmicroc.a(malloc.o)
 .xt.prop       0x00000000       0x90 c:/tools/sming/Sming/compiler/lib/\libmicroc.a(malloc.o)
 .data          0x00000000        0x0 c:/tools/sming/Sming/compiler/lib/\libmicroc.a(abort.o)
 .bss           0x00000000        0x0 c:/tools/sming/Sming/compiler/lib/\libmicroc.a(abort.o)
 .xt.lit        0x00000000        0x8 c:/tools/sming/Sming/compiler/lib/\libmicroc.a(abort.o)
 .xt.prop       0x00000000       0x30 c:/tools/sming/Sming/compiler/lib/\libmicroc.a(abort.o)
 .irom0.literal
                0x00000000      0x294 c:/tools/sming/Sming/compiler/lib/\libmicroc.a(floatscan.o)
 .irom0.text    0x00000000     0x1320 c:/tools/sming/Sming/compiler/lib/\libmicroc.a(floatscan.o)
 .data          0x00000000        0x0 c:/tools/sming/Sming/compiler/lib/\libmicroc.a(floatscan.o)
 .bss           0x00000000        0x0 c:/tools/sming/Sming/compiler/lib/\libmicroc.a(floatscan.o)
 .rodata.str1.1
                0x00000000        0xd c:/tools/sming/Sming/compiler/lib/\libmicroc.a(floatscan.o)
 .rodata        0x00000000       0x20 c:/tools/sming/Sming/compiler/lib/\libmicroc.a(floatscan.o)
 .xt.lit        0x00000000        0x8 c:/tools/sming/Sming/compiler/lib/\libmicroc.a(floatscan.o)
 .xt.prop       0x00000000      0xd68 c:/tools/sming/Sming/compiler/lib/\libmicroc.a(floatscan.o)
 .irom0.literal
                0x00000000        0x4 c:/tools/sming/Sming/compiler/lib/\libmicroc.a(shgetc.o)
 .irom0.text    0x00000000       0x95 c:/tools/sming/Sming/compiler/lib/\libmicroc.a(shgetc.o)
 .data          0x00000000        0x0 c:/tools/sming/Sming/compiler/lib/\libmicroc.a(shgetc.o)
 .bss           0x00000000        0x0 c:/tools/sming/Sming/compiler/lib/\libmicroc.a(shgetc.o)
 .xt.lit        0x00000000        0x8 c:/tools/sming/Sming/compiler/lib/\libmicroc.a(shgetc.o)
 .xt.prop       0x00000000       0xb4 c:/tools/sming/Sming/compiler/lib/\libmicroc.a(shgetc.o)
 .irom0.literal
                0x00000000        0x4 c:/tools/sming/Sming/compiler/lib/\libmicroc.a(__uflow.o)
 .irom0.text    0x00000000       0x39 c:/tools/sming/Sming/compiler/lib/\libmicroc.a(__uflow.o)
 .data          0x00000000        0x0 c:/tools/sming/Sming/compiler/lib/\libmicroc.a(__uflow.o)
 .bss           0x00000000        0x0 c:/tools/sming/Sming/compiler/lib/\libmicroc.a(__uflow.o)
 .xt.lit        0x00000000        0x8 c:/tools/sming/Sming/compiler/lib/\libmicroc.a(__uflow.o)
 .xt.prop       0x00000000       0x60 c:/tools/sming/Sming/compiler/lib/\libmicroc.a(__uflow.o)
 .irom0.literal
                0x00000000        0x4 c:/tools/sming/Sming/compiler/lib/\libmicroc.a(__toread.o)
 .irom0.text    0x00000000       0x6b c:/tools/sming/Sming/compiler/lib/\libmicroc.a(__toread.o)
 .data          0x00000000        0x0 c:/tools/sming/Sming/compiler/lib/\libmicroc.a(__toread.o)
 .bss           0x00000000        0x0 c:/tools/sming/Sming/compiler/lib/\libmicroc.a(__toread.o)
 .xt.lit        0x00000000        0x8 c:/tools/sming/Sming/compiler/lib/\libmicroc.a(__toread.o)
 .xt.prop       0x00000000       0x78 c:/tools/sming/Sming/compiler/lib/\libmicroc.a(__toread.o)
 .irom0.text    0x00000000        0x2 c:/tools/sming/Sming/compiler/lib/\libmicroc.a(__stdio_exit.o)
 .data          0x00000000        0x0 c:/tools/sming/Sming/compiler/lib/\libmicroc.a(__stdio_exit.o)
 .bss           0x00000000        0x4 c:/tools/sming/Sming/compiler/lib/\libmicroc.a(__stdio_exit.o)
 .xt.prop       0x00000000       0x30 c:/tools/sming/Sming/compiler/lib/\libmicroc.a(__stdio_exit.o)
 .irom0.literal
                0x00000000        0x4 c:/tools/sming/Sming/compiler/lib/\libmicroc.a(fmodl.o)
 .irom0.text    0x00000000       0x13 c:/tools/sming/Sming/compiler/lib/\libmicroc.a(fmodl.o)
 .data          0x00000000        0x0 c:/tools/sming/Sming/compiler/lib/\libmicroc.a(fmodl.o)
 .bss           0x00000000        0x0 c:/tools/sming/Sming/compiler/lib/\libmicroc.a(fmodl.o)
 .xt.lit        0x00000000        0x8 c:/tools/sming/Sming/compiler/lib/\libmicroc.a(fmodl.o)
 .xt.prop       0x00000000       0x30 c:/tools/sming/Sming/compiler/lib/\libmicroc.a(fmodl.o)
 .irom0.literal
                0x00000000       0x24 c:/tools/sming/Sming/compiler/lib/\libmicroc.a(scalbn.o)
 .irom0.text    0x00000000       0x8f c:/tools/sming/Sming/compiler/lib/\libmicroc.a(scalbn.o)
 .data          0x00000000        0x0 c:/tools/sming/Sming/compiler/lib/\libmicroc.a(scalbn.o)
 .bss           0x00000000        0x0 c:/tools/sming/Sming/compiler/lib/\libmicroc.a(scalbn.o)
 .xt.lit        0x00000000        0x8 c:/tools/sming/Sming/compiler/lib/\libmicroc.a(scalbn.o)
 .xt.prop       0x00000000       0x6c c:/tools/sming/Sming/compiler/lib/\libmicroc.a(scalbn.o)
 .irom0.literal
                0x00000000        0x4 c:/tools/sming/Sming/compiler/lib/\libmicroc.a(scalbnl.o)
 .irom0.text    0x00000000       0x13 c:/tools/sming/Sming/compiler/lib/\libmicroc.a(scalbnl.o)
 .data          0x00000000        0x0 c:/tools/sming/Sming/compiler/lib/\libmicroc.a(scalbnl.o)
 .bss           0x00000000        0x0 c:/tools/sming/Sming/compiler/lib/\libmicroc.a(scalbnl.o)
 .xt.lit        0x00000000        0x8 c:/tools/sming/Sming/compiler/lib/\libmicroc.a(scalbnl.o)
 .xt.prop       0x00000000       0x30 c:/tools/sming/Sming/compiler/lib/\libmicroc.a(scalbnl.o)
 .irom0.literal
                0x00000000        0x4 c:/tools/sming/Sming/compiler/lib/\libmicroc.a(__errno_location.o)
 .irom0.text    0x00000000        0x5 c:/tools/sming/Sming/compiler/lib/\libmicroc.a(__errno_location.o)
 .data          0x00000000        0x0 c:/tools/sming/Sming/compiler/lib/\libmicroc.a(__errno_location.o)
 .bss           0x00000000        0x4 c:/tools/sming/Sming/compiler/lib/\libmicroc.a(__errno_location.o)
 .xt.lit        0x00000000        0x8 c:/tools/sming/Sming/compiler/lib/\libmicroc.a(__errno_location.o)
 .xt.prop       0x00000000       0x3c c:/tools/sming/Sming/compiler/lib/\libmicroc.a(__errno_location.o)
 .irom0.literal
                0x00000000       0x38 c:/tools/sming/Sming/compiler/lib/\libmicroc.a(fmod.o)
 .irom0.text    0x00000000      0x1e9 c:/tools/sming/Sming/compiler/lib/\libmicroc.a(fmod.o)
 .data          0x00000000        0x0 c:/tools/sming/Sming/compiler/lib/\libmicroc.a(fmod.o)
 .bss           0x00000000        0x0 c:/tools/sming/Sming/compiler/lib/\libmicroc.a(fmod.o)
 .xt.lit        0x00000000        0x8 c:/tools/sming/Sming/compiler/lib/\libmicroc.a(fmod.o)
 .xt.prop       0x00000000      0x180 c:/tools/sming/Sming/compiler/lib/\libmicroc.a(fmod.o)
 .text          0x00000000       0x17 c:/tools/sming/Sming/compiler/lib/\libmicrogcc.a(_ashldi3.o)
 .data          0x00000000        0x0 c:/tools/sming/Sming/compiler/lib/\libmicrogcc.a(_ashldi3.o)
 .bss           0x00000000        0x0 c:/tools/sming/Sming/compiler/lib/\libmicrogcc.a(_ashldi3.o)
 .xt.prop       0x00000000       0x3c c:/tools/sming/Sming/compiler/lib/\libmicrogcc.a(_ashldi3.o)
 .data          0x00000000        0x0 c:/tools/sming/Sming/compiler/lib/\libmicrogcc.a(_cmpdf2.o)
 .bss           0x00000000        0x0 c:/tools/sming/Sming/compiler/lib/\libmicrogcc.a(_cmpdf2.o)
 .xt.lit        0x00000000        0x8 c:/tools/sming/Sming/compiler/lib/\libmicrogcc.a(_cmpdf2.o)
 .xt.prop       0x00000000      0x288 c:/tools/sming/Sming/compiler/lib/\libmicrogcc.a(_cmpdf2.o)
 .text          0x00000000       0x17 c:/tools/sming/Sming/compiler/lib/\libmicrogcc.a(_lshrdi3.o)
 .data          0x00000000        0x0 c:/tools/sming/Sming/compiler/lib/\libmicrogcc.a(_lshrdi3.o)
 .bss           0x00000000        0x0 c:/tools/sming/Sming/compiler/lib/\libmicrogcc.a(_lshrdi3.o)
 .xt.prop       0x00000000       0x3c c:/tools/sming/Sming/compiler/lib/\libmicrogcc.a(_lshrdi3.o)
 .data          0x00000000        0x0 c:/tools/sming/Sming/compiler/lib/\libmicrogcc.a(_modsi3.o)
 .bss           0x00000000        0x0 c:/tools/sming/Sming/compiler/lib/\libmicrogcc.a(_modsi3.o)
 .xt.prop       0x00000000       0x84 c:/tools/sming/Sming/compiler/lib/\libmicrogcc.a(_modsi3.o)
 .data          0x00000000        0x0 c:/espressif/xtensa-lx106-elf/bin/../lib/gcc/xtensa-lx106-elf/5.1.0/../../../../xtensa-lx106-elf/lib\libhal.a(int_asm--set_intclear.o)
 .bss           0x00000000        0x0 c:/espressif/xtensa-lx106-elf/bin/../lib/gcc/xtensa-lx106-elf/5.1.0/../../../../xtensa-lx106-elf/lib\libhal.a(int_asm--set_intclear.o)
 .xt.prop       0x00000000       0x24 c:/espressif/xtensa-lx106-elf/bin/../lib/gcc/xtensa-lx106-elf/5.1.0/../../../../xtensa-lx106-elf/lib\libhal.a(int_asm--set_intclear.o)
 .irom0.literal
                0x00000000        0x0 c:/Espressif/ESP8266_SDK/lib\libphy.a(phy.o)
 .literal       0x00000000        0x0 c:/Espressif/ESP8266_SDK/lib\libphy.a(phy.o)
 .data          0x00000000        0x0 c:/Espressif/ESP8266_SDK/lib\libphy.a(phy.o)
 .xt.lit        0x00000000       0x68 c:/Espressif/ESP8266_SDK/lib\libphy.a(phy.o)
 .xt.prop       0x00000000      0x1e0 c:/Espressif/ESP8266_SDK/lib\libphy.a(phy.o)
 .irom0.literal
                0x00000000        0x0 c:/Espressif/ESP8266_SDK/lib\libphy.a(phy_chip_v6_ana.o)
 .text          0x00000000        0x0 c:/Espressif/ESP8266_SDK/lib\libphy.a(phy_chip_v6_ana.o)
 .data          0x00000000        0x0 c:/Espressif/ESP8266_SDK/lib\libphy.a(phy_chip_v6_ana.o)
 .rodata        0x00000000        0x8 c:/Espressif/ESP8266_SDK/lib\libphy.a(phy_chip_v6_ana.o)
 .xt.lit        0x00000000       0xc0 c:/Espressif/ESP8266_SDK/lib\libphy.a(phy_chip_v6_ana.o)
 .xt.prop       0x00000000      0xcf0 c:/Espressif/ESP8266_SDK/lib\libphy.a(phy_chip_v6_ana.o)
 .irom0.literal
                0x00000000        0x0 c:/Espressif/ESP8266_SDK/lib\libphy.a(phy_chip_v6.o)
 .text          0x00000000        0x0 c:/Espressif/ESP8266_SDK/lib\libphy.a(phy_chip_v6.o)
 .xt.lit        0x00000000      0x220 c:/Espressif/ESP8266_SDK/lib\libphy.a(phy_chip_v6.o)
 .xt.prop       0x00000000     0x216c c:/Espressif/ESP8266_SDK/lib\libphy.a(phy_chip_v6.o)
 .irom0.literal
                0x00000000        0x0 c:/Espressif/ESP8266_SDK/lib\libphy.a(phy_chip_v6_cal.o)
 .literal       0x00000000        0x0 c:/Espressif/ESP8266_SDK/lib\libphy.a(phy_chip_v6_cal.o)
 .data          0x00000000        0x0 c:/Espressif/ESP8266_SDK/lib\libphy.a(phy_chip_v6_cal.o)
 .xt.lit        0x00000000       0xe8 c:/Espressif/ESP8266_SDK/lib\libphy.a(phy_chip_v6_cal.o)
 .xt.prop       0x00000000     0x1014 c:/Espressif/ESP8266_SDK/lib\libphy.a(phy_chip_v6_cal.o)
 .irom0.literal
                0x00000000        0x0 c:/Espressif/ESP8266_SDK/lib\libphy.a(phy_chip_v6_unused.o)
 .text          0x00000000        0x0 c:/Espressif/ESP8266_SDK/lib\libphy.a(phy_chip_v6_unused.o)
 .data          0x00000000        0x0 c:/Espressif/ESP8266_SDK/lib\libphy.a(phy_chip_v6_unused.o)
 .bss           0x00000000        0x0 c:/Espressif/ESP8266_SDK/lib\libphy.a(phy_chip_v6_unused.o)
 .xt.prop       0x00000000       0x6c c:/Espressif/ESP8266_SDK/lib\libphy.a(phy_chip_v6_unused.o)
 .irom0.literal
                0x00000000        0x0 c:/Espressif/ESP8266_SDK/lib\libphy.a(phy_sleep.o)
 .literal       0x00000000        0x0 c:/Espressif/ESP8266_SDK/lib\libphy.a(phy_sleep.o)
 .xt.lit        0x00000000       0xd8 c:/Espressif/ESP8266_SDK/lib\libphy.a(phy_sleep.o)
 .xt.prop       0x00000000      0x8d0 c:/Espressif/ESP8266_SDK/lib\libphy.a(phy_sleep.o)
 .irom0.literal
                0x00000000        0x0 c:/Espressif/ESP8266_SDK/lib\libpp.a(if_hwctrl.o)
 .text          0x00000000        0x0 c:/Espressif/ESP8266_SDK/lib\libpp.a(if_hwctrl.o)
 .data          0x00000000        0x0 c:/Espressif/ESP8266_SDK/lib\libpp.a(if_hwctrl.o)
 .xt.lit        0x00000000       0xa0 c:/Espressif/ESP8266_SDK/lib\libpp.a(if_hwctrl.o)
 .xt.prop       0x00000000      0x51c c:/Espressif/ESP8266_SDK/lib\libpp.a(if_hwctrl.o)
 .literal       0x00000000        0x0 c:/Espressif/ESP8266_SDK/lib\libpp.a(lmac.o)
 .irom0.literal
                0x00000000        0x0 c:/Espressif/ESP8266_SDK/lib\libpp.a(lmac.o)
 .data          0x00000000        0x0 c:/Espressif/ESP8266_SDK/lib\libpp.a(lmac.o)
 .xt.lit        0x00000000      0x130 c:/Espressif/ESP8266_SDK/lib\libpp.a(lmac.o)
 .xt.prop       0x00000000     0x159c c:/Espressif/ESP8266_SDK/lib\libpp.a(lmac.o)
 .irom0.literal
                0x00000000        0x0 c:/Espressif/ESP8266_SDK/lib\libpp.a(pm.o)
 .text          0x00000000        0x0 c:/Espressif/ESP8266_SDK/lib\libpp.a(pm.o)
 .xt.lit        0x00000000      0x190 c:/Espressif/ESP8266_SDK/lib\libpp.a(pm.o)
 .xt.prop       0x00000000     0x1410 c:/Espressif/ESP8266_SDK/lib\libpp.a(pm.o)
 .irom0.literal
                0x00000000        0x0 c:/Espressif/ESP8266_SDK/lib\libpp.a(pm_for_bcn_only_mode.o)
 .text          0x00000000        0x0 c:/Espressif/ESP8266_SDK/lib\libpp.a(pm_for_bcn_only_mode.o)
 .xt.lit        0x00000000       0x98 c:/Espressif/ESP8266_SDK/lib\libpp.a(pm_for_bcn_only_mode.o)
 .xt.prop       0x00000000      0x978 c:/Espressif/ESP8266_SDK/lib\libpp.a(pm_for_bcn_only_mode.o)
 .literal       0x00000000        0x0 c:/Espressif/ESP8266_SDK/lib\libpp.a(pp.o)
 .irom0.literal
                0x00000000        0x0 c:/Espressif/ESP8266_SDK/lib\libpp.a(pp.o)
 .xt.lit        0x00000000      0x1b0 c:/Espressif/ESP8266_SDK/lib\libpp.a(pp.o)
 .xt.prop       0x00000000     0x1b00 c:/Espressif/ESP8266_SDK/lib\libpp.a(pp.o)
 .literal       0x00000000        0x0 c:/Espressif/ESP8266_SDK/lib\libpp.a(rate_control.o)
 .irom0.literal
                0x00000000        0x0 c:/Espressif/ESP8266_SDK/lib\libpp.a(rate_control.o)
 .xt.lit        0x00000000       0x38 c:/Espressif/ESP8266_SDK/lib\libpp.a(rate_control.o)
 .xt.prop       0x00000000      0x1d4 c:/Espressif/ESP8266_SDK/lib\libpp.a(rate_control.o)
 .irom0.literal
                0x00000000        0x0 c:/Espressif/ESP8266_SDK/lib\libpp.a(trc.o)
 .literal       0x00000000        0x0 c:/Espressif/ESP8266_SDK/lib\libpp.a(trc.o)
 .xt.lit        0x00000000       0xa8 c:/Espressif/ESP8266_SDK/lib\libpp.a(trc.o)
 .xt.prop       0x00000000     0x11a0 c:/Espressif/ESP8266_SDK/lib\libpp.a(trc.o)
 .literal       0x00000000        0x0 c:/Espressif/ESP8266_SDK/lib\libpp.a(wdev.o)
 .irom0.literal
                0x00000000        0x0 c:/Espressif/ESP8266_SDK/lib\libpp.a(wdev.o)
 .xt.lit        0x00000000      0x198 c:/Espressif/ESP8266_SDK/lib\libpp.a(wdev.o)
 .xt.prop       0x00000000     0x1314 c:/Espressif/ESP8266_SDK/lib\libpp.a(wdev.o)
 .literal       0x00000000        0x0 c:/Espressif/ESP8266_SDK/lib\libpp.a(esf_buf.o)
 .irom0.literal
                0x00000000        0x0 c:/Espressif/ESP8266_SDK/lib\libpp.a(esf_buf.o)
 .data          0x00000000        0x0 c:/Espressif/ESP8266_SDK/lib\libpp.a(esf_buf.o)
 .xt.lit        0x00000000       0x20 c:/Espressif/ESP8266_SDK/lib\libpp.a(esf_buf.o)
 .xt.prop       0x00000000      0x2e8 c:/Espressif/ESP8266_SDK/lib\libpp.a(esf_buf.o)
 .irom0.literal
                0x00000000        0x0 c:/Espressif/ESP8266_SDK/lib\libnet80211.a(ieee80211.o)
 .text          0x00000000        0x0 c:/Espressif/ESP8266_SDK/lib\libnet80211.a(ieee80211.o)
 .data          0x00000000        0x0 c:/Espressif/ESP8266_SDK/lib\libnet80211.a(ieee80211.o)
 .xt.lit        0x00000000       0x50 c:/Espressif/ESP8266_SDK/lib\libnet80211.a(ieee80211.o)
 .xt.prop       0x00000000      0x4c8 c:/Espressif/ESP8266_SDK/lib\libnet80211.a(ieee80211.o)
 .irom0.literal
                0x00000000        0x0 c:/Espressif/ESP8266_SDK/lib\libnet80211.a(ieee80211_crypto.o)
 .text          0x00000000        0x0 c:/Espressif/ESP8266_SDK/lib\libnet80211.a(ieee80211_crypto.o)
 .data          0x00000000        0x0 c:/Espressif/ESP8266_SDK/lib\libnet80211.a(ieee80211_crypto.o)
 .bss           0x00000000        0x0 c:/Espressif/ESP8266_SDK/lib\libnet80211.a(ieee80211_crypto.o)
 .xt.lit        0x00000000       0x10 c:/Espressif/ESP8266_SDK/lib\libnet80211.a(ieee80211_crypto.o)
 .xt.prop       0x00000000      0x15c c:/Espressif/ESP8266_SDK/lib\libnet80211.a(ieee80211_crypto.o)
 .irom0.literal
                0x00000000        0x0 c:/Espressif/ESP8266_SDK/lib\libnet80211.a(ieee80211_ets.o)
 .text          0x00000000        0x0 c:/Espressif/ESP8266_SDK/lib\libnet80211.a(ieee80211_ets.o)
 .data          0x00000000        0x0 c:/Espressif/ESP8266_SDK/lib\libnet80211.a(ieee80211_ets.o)
 .bss           0x00000000        0x0 c:/Espressif/ESP8266_SDK/lib\libnet80211.a(ieee80211_ets.o)
 .xt.lit        0x00000000        0x8 c:/Espressif/ESP8266_SDK/lib\libnet80211.a(ieee80211_ets.o)
 .xt.prop       0x00000000       0x48 c:/Espressif/ESP8266_SDK/lib\libnet80211.a(ieee80211_ets.o)
 .literal       0x00000000        0x0 c:/Espressif/ESP8266_SDK/lib\libnet80211.a(ieee80211_hostap.o)
 .irom0.literal
                0x00000000        0x0 c:/Espressif/ESP8266_SDK/lib\libnet80211.a(ieee80211_hostap.o)
 .xt.lit        0x00000000       0x78 c:/Espressif/ESP8266_SDK/lib\libnet80211.a(ieee80211_hostap.o)
 .xt.prop       0x00000000      0xf84 c:/Espressif/ESP8266_SDK/lib\libnet80211.a(ieee80211_hostap.o)
 .irom0.literal
                0x00000000        0x0 c:/Espressif/ESP8266_SDK/lib\libnet80211.a(ieee80211_ht.o)
 .text          0x00000000        0x0 c:/Espressif/ESP8266_SDK/lib\libnet80211.a(ieee80211_ht.o)
 .data          0x00000000        0x0 c:/Espressif/ESP8266_SDK/lib\libnet80211.a(ieee80211_ht.o)
 .bss           0x00000000        0x0 c:/Espressif/ESP8266_SDK/lib\libnet80211.a(ieee80211_ht.o)
 .xt.lit        0x00000000       0x70 c:/Espressif/ESP8266_SDK/lib\libnet80211.a(ieee80211_ht.o)
 .xt.prop       0x00000000      0x690 c:/Espressif/ESP8266_SDK/lib\libnet80211.a(ieee80211_ht.o)
 .irom0.literal
                0x00000000        0x0 c:/Espressif/ESP8266_SDK/lib\libnet80211.a(ieee80211_input.o)
 .text          0x00000000        0x0 c:/Espressif/ESP8266_SDK/lib\libnet80211.a(ieee80211_input.o)
 .data          0x00000000        0x0 c:/Espressif/ESP8266_SDK/lib\libnet80211.a(ieee80211_input.o)
 .bss           0x00000000        0x0 c:/Espressif/ESP8266_SDK/lib\libnet80211.a(ieee80211_input.o)
 .xt.lit        0x00000000       0x60 c:/Espressif/ESP8266_SDK/lib\libnet80211.a(ieee80211_input.o)
 .xt.prop       0x00000000      0x8dc c:/Espressif/ESP8266_SDK/lib\libnet80211.a(ieee80211_input.o)
 .irom0.literal
                0x00000000        0x0 c:/Espressif/ESP8266_SDK/lib\libnet80211.a(ieee80211_mesh_quick.o)
 .text          0x00000000        0x0 c:/Espressif/ESP8266_SDK/lib\libnet80211.a(ieee80211_mesh_quick.o)
 .data          0x00000000        0x0 c:/Espressif/ESP8266_SDK/lib\libnet80211.a(ieee80211_mesh_quick.o)
 .bss           0x00000000        0x0 c:/Espressif/ESP8266_SDK/lib\libnet80211.a(ieee80211_mesh_quick.o)
 .xt.lit        0x00000000       0x28 c:/Espressif/ESP8266_SDK/lib\libnet80211.a(ieee80211_mesh_quick.o)
 .xt.prop       0x00000000      0x468 c:/Espressif/ESP8266_SDK/lib\libnet80211.a(ieee80211_mesh_quick.o)
 .irom0.literal
                0x00000000        0x0 c:/Espressif/ESP8266_SDK/lib\libnet80211.a(ieee80211_output.o)
 .literal       0x00000000        0x0 c:/Espressif/ESP8266_SDK/lib\libnet80211.a(ieee80211_output.o)
 .data          0x00000000        0x0 c:/Espressif/ESP8266_SDK/lib\libnet80211.a(ieee80211_output.o)
 .bss           0x00000000        0x0 c:/Espressif/ESP8266_SDK/lib\libnet80211.a(ieee80211_output.o)
 .xt.lit        0x00000000       0xa8 c:/Espressif/ESP8266_SDK/lib\libnet80211.a(ieee80211_output.o)
 .xt.prop       0x00000000     0x11a0 c:/Espressif/ESP8266_SDK/lib\libnet80211.a(ieee80211_output.o)
 .irom0.literal
                0x00000000        0x0 c:/Espressif/ESP8266_SDK/lib\libnet80211.a(ieee80211_phy.o)
 .text          0x00000000        0x0 c:/Espressif/ESP8266_SDK/lib\libnet80211.a(ieee80211_phy.o)
 .data          0x00000000        0x0 c:/Espressif/ESP8266_SDK/lib\libnet80211.a(ieee80211_phy.o)
 .bss           0x00000000        0x0 c:/Espressif/ESP8266_SDK/lib\libnet80211.a(ieee80211_phy.o)
 .xt.lit        0x00000000       0x18 c:/Espressif/ESP8266_SDK/lib\libnet80211.a(ieee80211_phy.o)
 .xt.prop       0x00000000      0x108 c:/Espressif/ESP8266_SDK/lib\libnet80211.a(ieee80211_phy.o)
 .irom0.literal
                0x00000000        0x0 c:/Espressif/ESP8266_SDK/lib\libnet80211.a(ieee80211_power.o)
 .text          0x00000000        0x0 c:/Espressif/ESP8266_SDK/lib\libnet80211.a(ieee80211_power.o)
 .data          0x00000000        0x0 c:/Espressif/ESP8266_SDK/lib\libnet80211.a(ieee80211_power.o)
 .bss           0x00000000        0x0 c:/Espressif/ESP8266_SDK/lib\libnet80211.a(ieee80211_power.o)
 .xt.lit        0x00000000       0x20 c:/Espressif/ESP8266_SDK/lib\libnet80211.a(ieee80211_power.o)
 .xt.prop       0x00000000      0x1bc c:/Espressif/ESP8266_SDK/lib\libnet80211.a(ieee80211_power.o)
 .irom0.literal
                0x00000000        0x0 c:/Espressif/ESP8266_SDK/lib\libnet80211.a(ieee80211_proto.o)
 .text          0x00000000        0x0 c:/Espressif/ESP8266_SDK/lib\libnet80211.a(ieee80211_proto.o)
 .data          0x00000000        0x0 c:/Espressif/ESP8266_SDK/lib\libnet80211.a(ieee80211_proto.o)
 .bss           0x00000000        0x0 c:/Espressif/ESP8266_SDK/lib\libnet80211.a(ieee80211_proto.o)
 .xt.lit        0x00000000       0x18 c:/Espressif/ESP8266_SDK/lib\libnet80211.a(ieee80211_proto.o)
 .xt.prop       0x00000000      0x120 c:/Espressif/ESP8266_SDK/lib\libnet80211.a(ieee80211_proto.o)
 .irom0.literal
                0x00000000        0x0 c:/Espressif/ESP8266_SDK/lib\libnet80211.a(ieee80211_rfid.o)
 .text          0x00000000        0x0 c:/Espressif/ESP8266_SDK/lib\libnet80211.a(ieee80211_rfid.o)
 .data          0x00000000        0x0 c:/Espressif/ESP8266_SDK/lib\libnet80211.a(ieee80211_rfid.o)
 .bss           0x00000000        0x0 c:/Espressif/ESP8266_SDK/lib\libnet80211.a(ieee80211_rfid.o)
 .xt.lit        0x00000000       0x30 c:/Espressif/ESP8266_SDK/lib\libnet80211.a(ieee80211_rfid.o)
 .xt.prop       0x00000000      0x12c c:/Espressif/ESP8266_SDK/lib\libnet80211.a(ieee80211_rfid.o)
 .irom0.literal
                0x00000000        0x0 c:/Espressif/ESP8266_SDK/lib\libnet80211.a(ieee80211_scan.o)
 .text          0x00000000        0x0 c:/Espressif/ESP8266_SDK/lib\libnet80211.a(ieee80211_scan.o)
 .data          0x00000000        0x0 c:/Espressif/ESP8266_SDK/lib\libnet80211.a(ieee80211_scan.o)
 .xt.lit        0x00000000       0xd8 c:/Espressif/ESP8266_SDK/lib\libnet80211.a(ieee80211_scan.o)
 .xt.prop       0x00000000      0xcd8 c:/Espressif/ESP8266_SDK/lib\libnet80211.a(ieee80211_scan.o)
 .irom0.literal
                0x00000000        0x0 c:/Espressif/ESP8266_SDK/lib\libnet80211.a(ieee80211_sta.o)
 .text          0x00000000        0x0 c:/Espressif/ESP8266_SDK/lib\libnet80211.a(ieee80211_sta.o)
 .data          0x00000000        0x0 c:/Espressif/ESP8266_SDK/lib\libnet80211.a(ieee80211_sta.o)
 .xt.lit        0x00000000       0x60 c:/Espressif/ESP8266_SDK/lib\libnet80211.a(ieee80211_sta.o)
 .xt.prop       0x00000000      0xad4 c:/Espressif/ESP8266_SDK/lib\libnet80211.a(ieee80211_sta.o)
 .irom0.literal
                0x00000000        0x0 c:/Espressif/ESP8266_SDK/lib\libnet80211.a(wl_chm.o)
 .literal       0x00000000        0x0 c:/Espressif/ESP8266_SDK/lib\libnet80211.a(wl_chm.o)
 .data          0x00000000        0x0 c:/Espressif/ESP8266_SDK/lib\libnet80211.a(wl_chm.o)
 .xt.lit        0x00000000       0x60 c:/Espressif/ESP8266_SDK/lib\libnet80211.a(wl_chm.o)
 .xt.prop       0x00000000      0x2dc c:/Espressif/ESP8266_SDK/lib\libnet80211.a(wl_chm.o)
 .irom0.literal
                0x00000000        0x0 c:/Espressif/ESP8266_SDK/lib\libnet80211.a(wl_cnx.o)
 .text          0x00000000        0x0 c:/Espressif/ESP8266_SDK/lib\libnet80211.a(wl_cnx.o)
 .xt.lit        0x00000000      0x138 c:/Espressif/ESP8266_SDK/lib\libnet80211.a(wl_cnx.o)
 .xt.prop       0x00000000     0x11d0 c:/Espressif/ESP8266_SDK/lib\libnet80211.a(wl_cnx.o)
 .irom0.literal
                0x00000000        0x0 c:/Espressif/ESP8266_SDK/lib\libnet80211.a(ieee80211_action.o)
 .text          0x00000000        0x0 c:/Espressif/ESP8266_SDK/lib\libnet80211.a(ieee80211_action.o)
 .bss           0x00000000        0x0 c:/Espressif/ESP8266_SDK/lib\libnet80211.a(ieee80211_action.o)
 .xt.lit        0x00000000       0x30 c:/Espressif/ESP8266_SDK/lib\libnet80211.a(ieee80211_action.o)
 .xt.prop       0x00000000      0x33c c:/Espressif/ESP8266_SDK/lib\libnet80211.a(ieee80211_action.o)
 .irom0.literal
                0x00000000        0x0 c:/Espressif/ESP8266_SDK/lib\libnet80211.a(ieee80211_action_vendor.o)
 .text          0x00000000        0x0 c:/Espressif/ESP8266_SDK/lib\libnet80211.a(ieee80211_action_vendor.o)
 .data          0x00000000        0x0 c:/Espressif/ESP8266_SDK/lib\libnet80211.a(ieee80211_action_vendor.o)
 .xt.lit        0x00000000       0x50 c:/Espressif/ESP8266_SDK/lib\libnet80211.a(ieee80211_action_vendor.o)
 .xt.prop       0x00000000      0x384 c:/Espressif/ESP8266_SDK/lib\libnet80211.a(ieee80211_action_vendor.o)
 .irom0.literal
                0x00000000        0x0 c:/Espressif/ESP8266_SDK/lib\libnet80211.a(ieee80211_crypto_ccmp.o)
 .text          0x00000000        0x0 c:/Espressif/ESP8266_SDK/lib\libnet80211.a(ieee80211_crypto_ccmp.o)
 .data          0x00000000        0x0 c:/Espressif/ESP8266_SDK/lib\libnet80211.a(ieee80211_crypto_ccmp.o)
 .bss           0x00000000        0x0 c:/Espressif/ESP8266_SDK/lib\libnet80211.a(ieee80211_crypto_ccmp.o)
 .xt.lit        0x00000000       0x10 c:/Espressif/ESP8266_SDK/lib\libnet80211.a(ieee80211_crypto_ccmp.o)
 .xt.prop       0x00000000       0xd8 c:/Espressif/ESP8266_SDK/lib\libnet80211.a(ieee80211_crypto_ccmp.o)
 .irom0.literal
                0x00000000        0x0 c:/Espressif/ESP8266_SDK/lib\libnet80211.a(ieee80211_ie_vendor.o)
 .text          0x00000000        0x0 c:/Espressif/ESP8266_SDK/lib\libnet80211.a(ieee80211_ie_vendor.o)
 .data          0x00000000        0x0 c:/Espressif/ESP8266_SDK/lib\libnet80211.a(ieee80211_ie_vendor.o)
 .bss           0x00000000        0x0 c:/Espressif/ESP8266_SDK/lib\libnet80211.a(ieee80211_ie_vendor.o)
 .xt.lit        0x00000000       0x38 c:/Espressif/ESP8266_SDK/lib\libnet80211.a(ieee80211_ie_vendor.o)
 .xt.prop       0x00000000      0x114 c:/Espressif/ESP8266_SDK/lib\libnet80211.a(ieee80211_ie_vendor.o)
 .irom0.literal
                0x00000000        0x0 c:/Espressif/ESP8266_SDK/lib\liblwip.a(dhcp.o)
 .text          0x00000000        0x0 c:/Espressif/ESP8266_SDK/lib\liblwip.a(dhcp.o)
 .xt.lit        0x00000000       0xc0 c:/Espressif/ESP8266_SDK/lib\liblwip.a(dhcp.o)
 .xt.prop       0x00000000      0xdbc c:/Espressif/ESP8266_SDK/lib\liblwip.a(dhcp.o)
 .irom0.literal
                0x00000000        0x0 c:/Espressif/ESP8266_SDK/lib\liblwip.a(dhcpserver.o)
 .text          0x00000000        0x0 c:/Espressif/ESP8266_SDK/lib\liblwip.a(dhcpserver.o)
 .xt.lit        0x00000000       0x98 c:/Espressif/ESP8266_SDK/lib\liblwip.a(dhcpserver.o)
 .xt.prop       0x00000000      0x96c c:/Espressif/ESP8266_SDK/lib\liblwip.a(dhcpserver.o)
 .irom0.literal
                0x00000000        0x0 c:/Espressif/ESP8266_SDK/lib\liblwip.a(dns.o)
 .text          0x00000000        0x0 c:/Espressif/ESP8266_SDK/lib\liblwip.a(dns.o)
 .data          0x00000000        0x0 c:/Espressif/ESP8266_SDK/lib\liblwip.a(dns.o)
 .xt.lit        0x00000000       0x48 c:/Espressif/ESP8266_SDK/lib\liblwip.a(dns.o)
 .xt.prop       0x00000000      0x480 c:/Espressif/ESP8266_SDK/lib\liblwip.a(dns.o)
 .irom0.literal
                0x00000000        0x0 c:/Espressif/ESP8266_SDK/lib\liblwip.a(espconn_tcp.o)
 .text          0x00000000        0x0 c:/Espressif/ESP8266_SDK/lib\liblwip.a(espconn_tcp.o)
 .data          0x00000000        0x0 c:/Espressif/ESP8266_SDK/lib\liblwip.a(espconn_tcp.o)
 .xt.lit        0x00000000       0xc0 c:/Espressif/ESP8266_SDK/lib\liblwip.a(espconn_tcp.o)
 .xt.prop       0x00000000      0xd5c c:/Espressif/ESP8266_SDK/lib\liblwip.a(espconn_tcp.o)
 .literal       0x00000000        0x0 c:/Espressif/ESP8266_SDK/lib\liblwip.a(etharp.o)
 .irom0.literal
                0x00000000        0x0 c:/Espressif/ESP8266_SDK/lib\liblwip.a(etharp.o)
 .data          0x00000000        0x0 c:/Espressif/ESP8266_SDK/lib\liblwip.a(etharp.o)
 .xt.lit        0x00000000       0x78 c:/Espressif/ESP8266_SDK/lib\liblwip.a(etharp.o)
 .xt.prop       0x00000000      0x750 c:/Espressif/ESP8266_SDK/lib\liblwip.a(etharp.o)
 .irom0.literal
                0x00000000        0x0 c:/Espressif/ESP8266_SDK/lib\liblwip.a(init.o)
 .text          0x00000000        0x0 c:/Espressif/ESP8266_SDK/lib\liblwip.a(init.o)
 .data          0x00000000        0x0 c:/Espressif/ESP8266_SDK/lib\liblwip.a(init.o)
 .bss           0x00000000        0x0 c:/Espressif/ESP8266_SDK/lib\liblwip.a(init.o)
 .xt.lit        0x00000000        0x8 c:/Espressif/ESP8266_SDK/lib\liblwip.a(init.o)
 .xt.prop       0x00000000       0x24 c:/Espressif/ESP8266_SDK/lib\liblwip.a(init.o)
 .irom0.literal
                0x00000000        0x0 c:/Espressif/ESP8266_SDK/lib\liblwip.a(ip_addr.o)
 .text          0x00000000        0x0 c:/Espressif/ESP8266_SDK/lib\liblwip.a(ip_addr.o)
 .data          0x00000000        0x0 c:/Espressif/ESP8266_SDK/lib\liblwip.a(ip_addr.o)
 .xt.lit        0x00000000       0x20 c:/Espressif/ESP8266_SDK/lib\liblwip.a(ip_addr.o)
 .xt.prop       0x00000000      0x330 c:/Espressif/ESP8266_SDK/lib\liblwip.a(ip_addr.o)
 .irom0.literal
                0x00000000        0x0 c:/Espressif/ESP8266_SDK/lib\liblwip.a(ip.o)
 .text          0x00000000        0x0 c:/Espressif/ESP8266_SDK/lib\liblwip.a(ip.o)
 .data          0x00000000        0x0 c:/Espressif/ESP8266_SDK/lib\liblwip.a(ip.o)
 .xt.lit        0x00000000       0x20 c:/Espressif/ESP8266_SDK/lib\liblwip.a(ip.o)
 .xt.prop       0x00000000      0x480 c:/Espressif/ESP8266_SDK/lib\liblwip.a(ip.o)
 .text          0x00000000        0x0 c:/Espressif/ESP8266_SDK/lib\liblwip.a(memp.o)
 .data          0x00000000        0x2 c:/Espressif/ESP8266_SDK/lib\liblwip.a(memp.o)
 .bss           0x00000000        0x0 c:/Espressif/ESP8266_SDK/lib\liblwip.a(memp.o)
 .xt.prop       0x00000000       0x18 c:/Espressif/ESP8266_SDK/lib\liblwip.a(memp.o)
 .irom0.literal
                0x00000000        0x0 c:/Espressif/ESP8266_SDK/lib\liblwip.a(netif.o)
 .text          0x00000000        0x0 c:/Espressif/ESP8266_SDK/lib\liblwip.a(netif.o)
 .data          0x00000000        0x0 c:/Espressif/ESP8266_SDK/lib\liblwip.a(netif.o)
 .xt.lit        0x00000000       0x40 c:/Espressif/ESP8266_SDK/lib\liblwip.a(netif.o)
 .xt.prop       0x00000000      0x354 c:/Espressif/ESP8266_SDK/lib\liblwip.a(netif.o)
 .irom0.literal
                0x00000000        0x0 c:/Espressif/ESP8266_SDK/lib\liblwip.a(pbuf.o)
 .text          0x00000000        0x0 c:/Espressif/ESP8266_SDK/lib\liblwip.a(pbuf.o)
 .data          0x00000000        0x0 c:/Espressif/ESP8266_SDK/lib\liblwip.a(pbuf.o)
 .bss           0x00000000        0x0 c:/Espressif/ESP8266_SDK/lib\liblwip.a(pbuf.o)
 .xt.lit        0x00000000       0x48 c:/Espressif/ESP8266_SDK/lib\liblwip.a(pbuf.o)
 .xt.prop       0x00000000      0x7b0 c:/Espressif/ESP8266_SDK/lib\liblwip.a(pbuf.o)
 .irom0.literal
                0x00000000        0x0 c:/Espressif/ESP8266_SDK/lib\liblwip.a(raw.o)
 .text          0x00000000        0x0 c:/Espressif/ESP8266_SDK/lib\liblwip.a(raw.o)
 .data          0x00000000        0x0 c:/Espressif/ESP8266_SDK/lib\liblwip.a(raw.o)
 .xt.lit        0x00000000       0x20 c:/Espressif/ESP8266_SDK/lib\liblwip.a(raw.o)
 .xt.prop       0x00000000      0x2ac c:/Espressif/ESP8266_SDK/lib\liblwip.a(raw.o)
 .irom0.literal
                0x00000000        0x0 c:/Espressif/ESP8266_SDK/lib\liblwip.a(tcp_in.o)
 .text          0x00000000        0x0 c:/Espressif/ESP8266_SDK/lib\liblwip.a(tcp_in.o)
 .data          0x00000000        0x0 c:/Espressif/ESP8266_SDK/lib\liblwip.a(tcp_in.o)
 .xt.lit        0x00000000       0x38 c:/Espressif/ESP8266_SDK/lib\liblwip.a(tcp_in.o)
 .xt.prop       0x00000000      0xd14 c:/Espressif/ESP8266_SDK/lib\liblwip.a(tcp_in.o)
 .irom0.literal
                0x00000000        0x0 c:/Espressif/ESP8266_SDK/lib\liblwip.a(tcp.o)
 .literal       0x00000000        0x0 c:/Espressif/ESP8266_SDK/lib\liblwip.a(tcp.o)
 .xt.lit        0x00000000       0xb8 c:/Espressif/ESP8266_SDK/lib\liblwip.a(tcp.o)
 .xt.prop       0x00000000      0xd68 c:/Espressif/ESP8266_SDK/lib\liblwip.a(tcp.o)
 .irom0.literal
                0x00000000        0x0 c:/Espressif/ESP8266_SDK/lib\liblwip.a(tcp_out.o)
 .literal       0x00000000        0x0 c:/Espressif/ESP8266_SDK/lib\liblwip.a(tcp_out.o)
 .data          0x00000000        0x0 c:/Espressif/ESP8266_SDK/lib\liblwip.a(tcp_out.o)
 .bss           0x00000000        0x0 c:/Espressif/ESP8266_SDK/lib\liblwip.a(tcp_out.o)
 .xt.lit        0x00000000       0x68 c:/Espressif/ESP8266_SDK/lib\liblwip.a(tcp_out.o)
 .xt.prop       0x00000000      0x978 c:/Espressif/ESP8266_SDK/lib\liblwip.a(tcp_out.o)
 .irom0.literal
                0x00000000        0x0 c:/Espressif/ESP8266_SDK/lib\liblwip.a(timers.o)
 .literal       0x00000000        0x0 c:/Espressif/ESP8266_SDK/lib\liblwip.a(timers.o)
 .data          0x00000000        0x0 c:/Espressif/ESP8266_SDK/lib\liblwip.a(timers.o)
 .xt.lit        0x00000000       0x68 c:/Espressif/ESP8266_SDK/lib\liblwip.a(timers.o)
 .xt.prop       0x00000000      0x384 c:/Espressif/ESP8266_SDK/lib\liblwip.a(timers.o)
 .irom0.literal
                0x00000000        0x0 c:/Espressif/ESP8266_SDK/lib\liblwip.a(udp.o)
 .text          0x00000000        0x0 c:/Espressif/ESP8266_SDK/lib\liblwip.a(udp.o)
 .data          0x00000000        0x0 c:/Espressif/ESP8266_SDK/lib\liblwip.a(udp.o)
 .xt.lit        0x00000000       0x38 c:/Espressif/ESP8266_SDK/lib\liblwip.a(udp.o)
 .xt.prop       0x00000000      0x5b8 c:/Espressif/ESP8266_SDK/lib\liblwip.a(udp.o)
 .irom0.literal
                0x00000000        0x0 c:/Espressif/ESP8266_SDK/lib\liblwip.a(espconn.o)
 .text          0x00000000        0x0 c:/Espressif/ESP8266_SDK/lib\liblwip.a(espconn.o)
 .data          0x00000000        0x0 c:/Espressif/ESP8266_SDK/lib\liblwip.a(espconn.o)
 .xt.lit        0x00000000       0xe8 c:/Espressif/ESP8266_SDK/lib\liblwip.a(espconn.o)
 .xt.prop       0x00000000      0xf84 c:/Espressif/ESP8266_SDK/lib\liblwip.a(espconn.o)
 .irom0.literal
                0x00000000        0x0 c:/Espressif/ESP8266_SDK/lib\liblwip.a(espconn_udp.o)
 .text          0x00000000        0x0 c:/Espressif/ESP8266_SDK/lib\liblwip.a(espconn_udp.o)
 .data          0x00000000        0x0 c:/Espressif/ESP8266_SDK/lib\liblwip.a(espconn_udp.o)
 .bss           0x00000000        0x0 c:/Espressif/ESP8266_SDK/lib\liblwip.a(espconn_udp.o)
 .xt.lit        0x00000000       0x38 c:/Espressif/ESP8266_SDK/lib\liblwip.a(espconn_udp.o)
 .xt.prop       0x00000000      0x348 c:/Espressif/ESP8266_SDK/lib\liblwip.a(espconn_udp.o)
 .irom0.literal
                0x00000000        0x0 c:/Espressif/ESP8266_SDK/lib\liblwip.a(icmp.o)
 .text          0x00000000        0x0 c:/Espressif/ESP8266_SDK/lib\liblwip.a(icmp.o)
 .data          0x00000000        0x0 c:/Espressif/ESP8266_SDK/lib\liblwip.a(icmp.o)
 .bss           0x00000000        0x0 c:/Espressif/ESP8266_SDK/lib\liblwip.a(icmp.o)
 .xt.lit        0x00000000       0x10 c:/Espressif/ESP8266_SDK/lib\liblwip.a(icmp.o)
 .xt.prop       0x00000000      0x114 c:/Espressif/ESP8266_SDK/lib\liblwip.a(icmp.o)
 .irom0.literal
                0x00000000        0x0 c:/Espressif/ESP8266_SDK/lib\liblwip.a(igmp.o)
 .text          0x00000000        0x0 c:/Espressif/ESP8266_SDK/lib\liblwip.a(igmp.o)
 .data          0x00000000        0x0 c:/Espressif/ESP8266_SDK/lib\liblwip.a(igmp.o)
 .xt.lit        0x00000000       0x70 c:/Espressif/ESP8266_SDK/lib\liblwip.a(igmp.o)
 .xt.prop       0x00000000      0x648 c:/Espressif/ESP8266_SDK/lib\liblwip.a(igmp.o)
 .irom0.literal
                0x00000000        0x0 c:/Espressif/ESP8266_SDK/lib\liblwip.a(inet_chksum.o)
 .text          0x00000000        0x0 c:/Espressif/ESP8266_SDK/lib\liblwip.a(inet_chksum.o)
 .data          0x00000000        0x0 c:/Espressif/ESP8266_SDK/lib\liblwip.a(inet_chksum.o)
 .bss           0x00000000        0x0 c:/Espressif/ESP8266_SDK/lib\liblwip.a(inet_chksum.o)
 .xt.prop       0x00000000      0x168 c:/Espressif/ESP8266_SDK/lib\liblwip.a(inet_chksum.o)
 .irom0.literal
                0x00000000        0x0 c:/Espressif/ESP8266_SDK/lib\libwpa.a(ap_config.o)
 .text          0x00000000        0x0 c:/Espressif/ESP8266_SDK/lib\libwpa.a(ap_config.o)
 .data          0x00000000        0x0 c:/Espressif/ESP8266_SDK/lib\libwpa.a(ap_config.o)
 .bss           0x00000000        0x0 c:/Espressif/ESP8266_SDK/lib\libwpa.a(ap_config.o)
 .xt.lit        0x00000000       0x40 c:/Espressif/ESP8266_SDK/lib\libwpa.a(ap_config.o)
 .xt.prop       0x00000000      0x2f4 c:/Espressif/ESP8266_SDK/lib\libwpa.a(ap_config.o)
 .irom0.literal
                0x00000000        0x0 c:/Espressif/ESP8266_SDK/lib\libwpa.a(common.o)
 .text          0x00000000        0x0 c:/Espressif/ESP8266_SDK/lib\libwpa.a(common.o)
 .data          0x00000000        0x0 c:/Espressif/ESP8266_SDK/lib\libwpa.a(common.o)
 .bss           0x00000000        0x0 c:/Espressif/ESP8266_SDK/lib\libwpa.a(common.o)
 .xt.lit        0x00000000       0x18 c:/Espressif/ESP8266_SDK/lib\libwpa.a(common.o)
 .xt.prop       0x00000000      0x228 c:/Espressif/ESP8266_SDK/lib\libwpa.a(common.o)
 .irom0.literal
                0x00000000        0x0 c:/Espressif/ESP8266_SDK/lib\libwpa.a(os_xtensa.o)
 .text          0x00000000        0x0 c:/Espressif/ESP8266_SDK/lib\libwpa.a(os_xtensa.o)
 .data          0x00000000        0x0 c:/Espressif/ESP8266_SDK/lib\libwpa.a(os_xtensa.o)
 .bss           0x00000000        0x0 c:/Espressif/ESP8266_SDK/lib\libwpa.a(os_xtensa.o)
 .xt.lit        0x00000000       0x10 c:/Espressif/ESP8266_SDK/lib\libwpa.a(os_xtensa.o)
 .xt.prop       0x00000000       0xfc c:/Espressif/ESP8266_SDK/lib\libwpa.a(os_xtensa.o)
 .literal       0x00000000        0x0 c:/Espressif/ESP8266_SDK/lib\libwpa.a(wpa_auth.o)
 .irom0.literal
                0x00000000        0x0 c:/Espressif/ESP8266_SDK/lib\libwpa.a(wpa_auth.o)
 .data          0x00000000        0x0 c:/Espressif/ESP8266_SDK/lib\libwpa.a(wpa_auth.o)
 .bss           0x00000000        0x0 c:/Espressif/ESP8266_SDK/lib\libwpa.a(wpa_auth.o)
 .xt.lit        0x00000000      0x100 c:/Espressif/ESP8266_SDK/lib\libwpa.a(wpa_auth.o)
 .xt.prop       0x00000000     0x1668 c:/Espressif/ESP8266_SDK/lib\libwpa.a(wpa_auth.o)
 .irom0.literal
                0x00000000        0x0 c:/Espressif/ESP8266_SDK/lib\libwpa.a(wpa_auth_ie.o)
 .text          0x00000000        0x0 c:/Espressif/ESP8266_SDK/lib\libwpa.a(wpa_auth_ie.o)
 .data          0x00000000        0x0 c:/Espressif/ESP8266_SDK/lib\libwpa.a(wpa_auth_ie.o)
 .bss           0x00000000        0x0 c:/Espressif/ESP8266_SDK/lib\libwpa.a(wpa_auth_ie.o)
 .xt.lit        0x00000000       0x38 c:/Espressif/ESP8266_SDK/lib\libwpa.a(wpa_auth_ie.o)
 .xt.prop       0x00000000      0x48c c:/Espressif/ESP8266_SDK/lib\libwpa.a(wpa_auth_ie.o)
 .irom0.literal
                0x00000000        0x0 c:/Espressif/ESP8266_SDK/lib\libwpa.a(wpa.o)
 .text          0x00000000        0x0 c:/Espressif/ESP8266_SDK/lib\libwpa.a(wpa.o)
 .data          0x00000000        0x0 c:/Espressif/ESP8266_SDK/lib\libwpa.a(wpa.o)
 .xt.lit        0x00000000      0x110 c:/Espressif/ESP8266_SDK/lib\libwpa.a(wpa.o)
 .xt.prop       0x00000000      0xdb0 c:/Espressif/ESP8266_SDK/lib\libwpa.a(wpa.o)
 .irom0.literal
                0x00000000        0x0 c:/Espressif/ESP8266_SDK/lib\libwpa.a(wpa_common.o)
 .text          0x00000000        0x0 c:/Espressif/ESP8266_SDK/lib\libwpa.a(wpa_common.o)
 .data          0x00000000        0x0 c:/Espressif/ESP8266_SDK/lib\libwpa.a(wpa_common.o)
 .bss           0x00000000        0x0 c:/Espressif/ESP8266_SDK/lib\libwpa.a(wpa_common.o)
 .xt.lit        0x00000000       0x58 c:/Espressif/ESP8266_SDK/lib\libwpa.a(wpa_common.o)
 .xt.prop       0x00000000      0x7a4 c:/Espressif/ESP8266_SDK/lib\libwpa.a(wpa_common.o)
 .irom0.literal
                0x00000000        0x0 c:/Espressif/ESP8266_SDK/lib\libwpa.a(wpa_debug.o)
 .text          0x00000000        0x0 c:/Espressif/ESP8266_SDK/lib\libwpa.a(wpa_debug.o)
 .data          0x00000000        0x0 c:/Espressif/ESP8266_SDK/lib\libwpa.a(wpa_debug.o)
 .bss           0x00000000        0x0 c:/Espressif/ESP8266_SDK/lib\libwpa.a(wpa_debug.o)
 .xt.lit        0x00000000        0x8 c:/Espressif/ESP8266_SDK/lib\libwpa.a(wpa_debug.o)
 .xt.prop       0x00000000       0xc0 c:/Espressif/ESP8266_SDK/lib\libwpa.a(wpa_debug.o)
 .irom0.literal
                0x00000000        0x0 c:/Espressif/ESP8266_SDK/lib\libwpa.a(wpa_ie.o)
 .text          0x00000000        0x0 c:/Espressif/ESP8266_SDK/lib\libwpa.a(wpa_ie.o)
 .data          0x00000000        0x0 c:/Espressif/ESP8266_SDK/lib\libwpa.a(wpa_ie.o)
 .bss           0x00000000        0x0 c:/Espressif/ESP8266_SDK/lib\libwpa.a(wpa_ie.o)
 .xt.lit        0x00000000       0x18 c:/Espressif/ESP8266_SDK/lib\libwpa.a(wpa_ie.o)
 .xt.prop       0x00000000      0x378 c:/Espressif/ESP8266_SDK/lib\libwpa.a(wpa_ie.o)
 .irom0.literal
                0x00000000        0x0 c:/Espressif/ESP8266_SDK/lib\libwpa.a(wpa_main.o)
 .text          0x00000000        0x0 c:/Espressif/ESP8266_SDK/lib\libwpa.a(wpa_main.o)
 .data          0x00000000        0x0 c:/Espressif/ESP8266_SDK/lib\libwpa.a(wpa_main.o)
 .bss           0x00000000        0x0 c:/Espressif/ESP8266_SDK/lib\libwpa.a(wpa_main.o)
 .xt.lit        0x00000000       0x48 c:/Espressif/ESP8266_SDK/lib\libwpa.a(wpa_main.o)
 .xt.prop       0x00000000      0x33c c:/Espressif/ESP8266_SDK/lib\libwpa.a(wpa_main.o)
 .irom0.literal
                0x00000000        0x0 c:/Espressif/ESP8266_SDK/lib\libwpa.a(wpas_glue.o)
 .text          0x00000000        0x0 c:/Espressif/ESP8266_SDK/lib\libwpa.a(wpas_glue.o)
 .data          0x00000000        0x0 c:/Espressif/ESP8266_SDK/lib\libwpa.a(wpas_glue.o)
 .bss           0x00000000        0x0 c:/Espressif/ESP8266_SDK/lib\libwpa.a(wpas_glue.o)
 .xt.lit        0x00000000       0x10 c:/Espressif/ESP8266_SDK/lib\libwpa.a(wpas_glue.o)
 .xt.prop       0x00000000      0x12c c:/Espressif/ESP8266_SDK/lib\libwpa.a(wpas_glue.o)
 .group         0x00000000       0x10 c:/tools/sming/Sming/compiler/lib/\libsming.a(Timer.o)
 .iram.literal  0x00000000        0x0 c:/tools/sming/Sming/compiler/lib/\libsming.a(Timer.o)
 .literal._ZN5TimerC2Ev
                0x00000000        0x0 c:/tools/sming/Sming/compiler/lib/\libsming.a(Timer.o)
 .literal._ZN5TimerD2Ev
                0x00000000        0x0 c:/tools/sming/Sming/compiler/lib/\libsming.a(Timer.o)
 .literal._ZN5Timer9isStartedEv
                0x00000000        0x0 c:/tools/sming/Sming/compiler/lib/\libsming.a(Timer.o)
 .literal._ZN5Timer13getIntervalUsEv
                0x00000000        0x0 c:/tools/sming/Sming/compiler/lib/\libsming.a(Timer.o)
 .literal._ZN5Timer13getIntervalMsEv
                0x00000000        0x0 c:/tools/sming/Sming/compiler/lib/\libsming.a(Timer.o)
 .literal._ZN8DelegateIFvvEE4copyERKS1_
                0x00000000        0x0 c:/tools/sming/Sming/compiler/lib/\libsming.a(Timer.o)
 .text          0x00000000        0x0 c:/tools/sming/Sming/compiler/lib/\libsming.a(Timer.o)
 .data          0x00000000        0x0 c:/tools/sming/Sming/compiler/lib/\libsming.a(Timer.o)
 .bss           0x00000000        0x0 c:/tools/sming/Sming/compiler/lib/\libsming.a(Timer.o)
 .text._ZN5Timer9isStartedEv
                0x00000000        0x5 c:/tools/sming/Sming/compiler/lib/\libsming.a(Timer.o)
 .text._ZN5Timer13getIntervalUsEv
                0x00000000       0x2b c:/tools/sming/Sming/compiler/lib/\libsming.a(Timer.o)
 .text._ZN5Timer13getIntervalMsEv
                0x00000000       0x24 c:/tools/sming/Sming/compiler/lib/\libsming.a(Timer.o)
 .text._ZN8DelegateIFvvEE4copyERKS1_
                0x00000000       0x3c c:/tools/sming/Sming/compiler/lib/\libsming.a(Timer.o)
 .xt.lit        0x00000000       0x60 c:/tools/sming/Sming/compiler/lib/\libsming.a(Timer.o)
 .xt.prop       0x00000000      0x33c c:/tools/sming/Sming/compiler/lib/\libsming.a(Timer.o)
 .xt.prop._ZN8DelegateIFvvEE4copyERKS1_
                0x00000000       0x24 c:/tools/sming/Sming/compiler/lib/\libsming.a(Timer.o)
 .irom0.literal
                0x00000000        0x0 c:/Espressif/ESP8266_SDK/lib\libcrypto.a(aes-wrap.o)
 .text          0x00000000        0x0 c:/Espressif/ESP8266_SDK/lib\libcrypto.a(aes-wrap.o)
 .data          0x00000000        0x0 c:/Espressif/ESP8266_SDK/lib\libcrypto.a(aes-wrap.o)
 .bss           0x00000000        0x0 c:/Espressif/ESP8266_SDK/lib\libcrypto.a(aes-wrap.o)
 .xt.lit        0x00000000        0x8 c:/Espressif/ESP8266_SDK/lib\libcrypto.a(aes-wrap.o)
 .xt.prop       0x00000000       0x6c c:/Espressif/ESP8266_SDK/lib\libcrypto.a(aes-wrap.o)
 .irom0.literal
                0x00000000        0x0 c:/Espressif/ESP8266_SDK/lib\libcrypto.a(aes-internal-enc.o)
 .text          0x00000000        0x0 c:/Espressif/ESP8266_SDK/lib\libcrypto.a(aes-internal-enc.o)
 .data          0x00000000        0x0 c:/Espressif/ESP8266_SDK/lib\libcrypto.a(aes-internal-enc.o)
 .bss           0x00000000        0x0 c:/Espressif/ESP8266_SDK/lib\libcrypto.a(aes-internal-enc.o)
 .xt.lit        0x00000000       0x18 c:/Espressif/ESP8266_SDK/lib\libcrypto.a(aes-internal-enc.o)
 .xt.prop       0x00000000       0xe4 c:/Espressif/ESP8266_SDK/lib\libcrypto.a(aes-internal-enc.o)
 .irom0.literal
                0x00000000        0x0 c:/Espressif/ESP8266_SDK/lib\libcrypto.a(aes-internal.o)
 .text          0x00000000        0x0 c:/Espressif/ESP8266_SDK/lib\libcrypto.a(aes-internal.o)
 .data          0x00000000        0x0 c:/Espressif/ESP8266_SDK/lib\libcrypto.a(aes-internal.o)
 .bss           0x00000000        0x0 c:/Espressif/ESP8266_SDK/lib\libcrypto.a(aes-internal.o)
 .xt.lit        0x00000000        0x8 c:/Espressif/ESP8266_SDK/lib\libcrypto.a(aes-internal.o)
 .xt.prop       0x00000000       0xb4 c:/Espressif/ESP8266_SDK/lib\libcrypto.a(aes-internal.o)
 .data          0x00000000        0x0 c:/tools/sming/Sming/compiler/lib/\libmicrogcc.a(_ashrdi3.o)
 .bss           0x00000000        0x0 c:/tools/sming/Sming/compiler/lib/\libmicrogcc.a(_ashrdi3.o)
 .xt.prop       0x00000000       0x3c c:/tools/sming/Sming/compiler/lib/\libmicrogcc.a(_ashrdi3.o)
 .data          0x00000000        0x0 c:/tools/sming/Sming/compiler/lib/\libmicrogcc.a(_divsf3.o)
 .bss           0x00000000        0x0 c:/tools/sming/Sming/compiler/lib/\libmicrogcc.a(_divsf3.o)
 .xt.lit        0x00000000        0x8 c:/tools/sming/Sming/compiler/lib/\libmicrogcc.a(_divsf3.o)
 .xt.prop       0x00000000      0x168 c:/tools/sming/Sming/compiler/lib/\libmicrogcc.a(_divsf3.o)
 .data          0x00000000        0x0 c:/tools/sming/Sming/compiler/lib/\libmicrogcc.a(_fixsfsi.o)
 .bss           0x00000000        0x0 c:/tools/sming/Sming/compiler/lib/\libmicrogcc.a(_fixsfsi.o)
 .xt.lit        0x00000000        0x8 c:/tools/sming/Sming/compiler/lib/\libmicrogcc.a(_fixsfsi.o)
 .xt.prop       0x00000000       0x6c c:/tools/sming/Sming/compiler/lib/\libmicrogcc.a(_fixsfsi.o)
 .irom0.literal
                0x00000000        0x0 c:/Espressif/ESP8266_SDK/lib\libnet80211.a(ieee80211_crypto_tkip.o)
 .text          0x00000000        0x0 c:/Espressif/ESP8266_SDK/lib\libnet80211.a(ieee80211_crypto_tkip.o)
 .data          0x00000000        0x0 c:/Espressif/ESP8266_SDK/lib\libnet80211.a(ieee80211_crypto_tkip.o)
 .xt.lit        0x00000000       0x10 c:/Espressif/ESP8266_SDK/lib\libnet80211.a(ieee80211_crypto_tkip.o)
 .xt.prop       0x00000000       0xfc c:/Espressif/ESP8266_SDK/lib\libnet80211.a(ieee80211_crypto_tkip.o)
 .irom0.literal
                0x00000000        0x0 c:/Espressif/ESP8266_SDK/lib\libnet80211.a(ieee80211_crypto_wep.o)
 .text          0x00000000        0x0 c:/Espressif/ESP8266_SDK/lib\libnet80211.a(ieee80211_crypto_wep.o)
 .data          0x00000000        0x0 c:/Espressif/ESP8266_SDK/lib\libnet80211.a(ieee80211_crypto_wep.o)
 .bss           0x00000000        0x0 c:/Espressif/ESP8266_SDK/lib\libnet80211.a(ieee80211_crypto_wep.o)
 .xt.lit        0x00000000        0x8 c:/Espressif/ESP8266_SDK/lib\libnet80211.a(ieee80211_crypto_wep.o)
 .xt.prop       0x00000000       0x78 c:/Espressif/ESP8266_SDK/lib\libnet80211.a(ieee80211_crypto_wep.o)

Memory Configuration

Name             Origin             Length             Attributes
dport0_0_seg     0x3ff00000         0x00000010
dram0_0_seg      0x3ffe8000         0x00014000
iram1_0_seg      0x40100000         0x00008000
irom0_0_seg      0x40209000         0x00042000
*default*        0x00000000         0xffffffff

Linker script and memory map

START GROUP
LOAD c:/tools/sming/Sming/compiler/lib/\libmicroc.a
LOAD c:/tools/sming/Sming/compiler/lib/\libmicrogcc.a
LOAD c:/espressif/xtensa-lx106-elf/bin/../lib/gcc/xtensa-lx106-elf/5.1.0/../../../../xtensa-lx106-elf/lib\libhal.a
LOAD c:/Espressif/ESP8266_SDK/lib\libphy.a
LOAD c:/Espressif/ESP8266_SDK/lib\libpp.a
LOAD c:/Espressif/ESP8266_SDK/lib\libnet80211.a
LOAD c:/Espressif/ESP8266_SDK/lib\liblwip.a
LOAD c:/Espressif/ESP8266_SDK/lib\libwpa.a
LOAD c:/Espressif/ESP8266_SDK/lib\libmain.a
LOAD c:/tools/sming/Sming/compiler/lib/\libsming.a
LOAD c:/Espressif/ESP8266_SDK/lib\libcrypto.a
LOAD c:/Espressif/ESP8266_SDK/lib\libpwm.a
LOAD c:/Espressif/ESP8266_SDK/lib\libsmartconfig.a
LOAD out/build/app_app.a
END GROUP
                0x40000000                PROVIDE (_memmap_vecbase_reset, 0x40000000)
                0x00000110                _memmap_cacheattr_wb_base = 0x110
                0x00000110                _memmap_cacheattr_wt_base = 0x110
                0x00000220                _memmap_cacheattr_bp_base = 0x220
                0xfffff00f                _memmap_cacheattr_unused_mask = 0xfffff00f
                0x2222211f                _memmap_cacheattr_wb_trapnull = 0x2222211f
                0x2222211f                _memmap_cacheattr_wba_trapnull = 0x2222211f
                0x2222211f                _memmap_cacheattr_wbna_trapnull = 0x2222211f
                0x2222211f                _memmap_cacheattr_wt_trapnull = 0x2222211f
                0x2222222f                _memmap_cacheattr_bp_trapnull = 0x2222222f
                0xfffff11f                _memmap_cacheattr_wb_strict = 0xfffff11f
                0xfffff11f                _memmap_cacheattr_wt_strict = 0xfffff11f
                0xfffff22f                _memmap_cacheattr_bp_strict = 0xfffff22f
                0x22222112                _memmap_cacheattr_wb_allvalid = 0x22222112
                0x22222112                _memmap_cacheattr_wt_allvalid = 0x22222112
                0x22222222                _memmap_cacheattr_bp_allvalid = 0x22222222
                0x2222211f                PROVIDE (_memmap_cacheattr_reset, _memmap_cacheattr_wb_trapnull)

.dport0.rodata  0x3ff00000        0x0
                0x3ff00000                _dport0_rodata_start = ABSOLUTE (.)
 *(.dport0.rodata)
 *(.dport.rodata)
                0x3ff00000                _dport0_rodata_end = ABSOLUTE (.)

.dport0.literal
                0x3ff00000        0x0
                0x3ff00000                _dport0_literal_start = ABSOLUTE (.)
 *(.dport0.literal)
 *(.dport.literal)
                0x3ff00000                _dport0_literal_end = ABSOLUTE (.)

.dport0.data    0x3ff00000        0x0
                0x3ff00000                _dport0_data_start = ABSOLUTE (.)
 *(.dport0.data)
 *(.dport.data)
                0x3ff00000                _dport0_data_end = ABSOLUTE (.)

.data           0x3ffe8000      0x375
                0x3ffe8000                _data_start = ABSOLUTE (.)
 *(.data)
 .data          0x3ffe8000        0x4 c:/Espressif/ESP8266_SDK/lib\libmain.a(nmi-vector.o)
                0x3ffe8000                _Pri_3_HandlerAddress
 .data          0x3ffe8004        0x1 c:/Espressif/ESP8266_SDK/lib\libmain.a(app_main.o)
 *fill*         0x3ffe8005        0x3 
 .data          0x3ffe8008        0x6 c:/Espressif/ESP8266_SDK/lib\libmain.a(user_interface.o)
                0x3ffe8009                timer2_ms_flag
                0x3ffe800a                dhcps_flag
                0x3ffe800b                dhcpc_flag
                0x3ffe800d                reconnect_internal
 *fill*         0x3ffe800e        0x2 
 .data          0x3ffe8010        0x1 c:/Espressif/ESP8266_SDK/lib\libmain.a(eagle_lwip_if.o)
                0x3ffe8010                default_hostname
 *fill*         0x3ffe8011        0xf 
 .data          0x3ffe8020       0x53 c:/Espressif/ESP8266_SDK/lib\libphy.a(phy_chip_v6.o)
                0x3ffe8022                tx_rf_ana_gain
                0x3ffe8050                rx_gain_swp
                0x3ffe8070                test_rffreq_txcap
 *fill*         0x3ffe8073        0x1 
 .data          0x3ffe8074        0x4 c:/Espressif/ESP8266_SDK/lib\libphy.a(phy_sleep.o)
                0x3ffe8074                chip_version
 .data          0x3ffe8078        0x1 c:/Espressif/ESP8266_SDK/lib\libpp.a(pm.o)
 *fill*         0x3ffe8079        0x3 
 .data          0x3ffe807c        0x1 c:/Espressif/ESP8266_SDK/lib\libpp.a(pm_for_bcn_only_mode.o)
 *fill*         0x3ffe807d        0x3 
 .data          0x3ffe8080       0x1c c:/Espressif/ESP8266_SDK/lib\libpp.a(pp.o)
                0x3ffe8080                soft_wdt_interval
                0x3ffe8084                NoiseTimerInterval
                0x3ffe808c                sleep_start_wait_time
                0x3ffe8094                CanDoFreqCal
                0x3ffe8098                tcb
 *fill*         0x3ffe809c        0x4 
 .data          0x3ffe80a0       0x40 c:/Espressif/ESP8266_SDK/lib\libpp.a(rate_control.o)
 .data          0x3ffe80e0      0x24c c:/Espressif/ESP8266_SDK/lib\libpp.a(trc.o)
 .data          0x3ffe832c        0x8 c:/Espressif/ESP8266_SDK/lib\libpp.a(wdev.o)
 .data          0x3ffe8334        0x1 c:/Espressif/ESP8266_SDK/lib\libnet80211.a(ieee80211_hostap.o)
                0x3ffe8334                TmpSTAAPCloseAP
 *fill*         0x3ffe8335        0x3 
 .data          0x3ffe8338        0x1 c:/Espressif/ESP8266_SDK/lib\libnet80211.a(wl_cnx.o)
 *fill*         0x3ffe8339        0x7 
 .data          0x3ffe8340       0x1c c:/Espressif/ESP8266_SDK/lib\libnet80211.a(ieee80211_action.o)
 .data          0x3ffe835c        0x4 c:/Espressif/ESP8266_SDK/lib\liblwip.a(dhcp.o)
 .data          0x3ffe8360        0x5 c:/Espressif/ESP8266_SDK/lib\liblwip.a(dhcpserver.o)
                0x3ffe8360                dhcps_lease_time
 *fill*         0x3ffe8365        0x3 
 .data          0x3ffe8368        0x8 c:/Espressif/ESP8266_SDK/lib\liblwip.a(tcp.o)
 *(.data.*)
 .data.cbc_printchar
                0x3ffe8370        0x4 c:/tools/sming/Sming/compiler/lib/\libsming.a(m_printf.o)
                0x3ffe8370                cbc_printchar
 .data.state    0x3ffe8374        0x1 out/build/app_app.a(application.o)
                0x3ffe8374                state
 *(.gnu.linkonce.d.*)
 *(.data1)
 *(.sdata)
 *(.sdata.*)
 *(.gnu.linkonce.s.*)
 *(.sdata2)
 *(.sdata2.*)
 *(.gnu.linkonce.s2.*)
 *(.jcr)
                0x3ffe8375                _data_end = ABSOLUTE (.)

.rodata         0x3ffe8378      0x2dc
                0x3ffe8378                _rodata_start = ABSOLUTE (.)
 *(.sdk.version)
 .sdk.version   0x3ffe8378        0x6 c:/Espressif/ESP8266_SDK/lib\libmain.a(app_main.o)
                0x3ffe8378                SDK_VERSION
 *(.rodata)
 *fill*         0x3ffe837e        0x2 
 .rodata        0x3ffe8380        0x8 c:/Espressif/ESP8266_SDK/lib\libphy.a(phy_chip_v6.o)
 .rodata        0x3ffe8388        0x4 c:/Espressif/ESP8266_SDK/lib\libpp.a(pp.o)
 .rodata        0x3ffe838c        0x8 c:/Espressif/ESP8266_SDK/lib\libnet80211.a(ieee80211_hostap.o)
 .rodata        0x3ffe8394        0x9 c:/Espressif/ESP8266_SDK/lib\libnet80211.a(ieee80211_output.o)
 *fill*         0x3ffe839d        0x3 
 .rodata        0x3ffe83a0        0x6 c:/Espressif/ESP8266_SDK/lib\liblwip.a(etharp.o)
                0x3ffe83a0                ethbroadcast
 *(.rodata.*)
 *fill*         0x3ffe83a6        0x2 
 .rodata.str1.4
                0x3ffe83a8        0xc c:/Espressif/ESP8266_SDK/lib\libmain.a(app_main.o)
 .rodata.str1.4
                0x3ffe83b4        0x4 c:/Espressif/ESP8266_SDK/lib\libmain.a(ets_timer.o)
                                  0xc (size before relaxing)
 .rodata.str1.4
                0x3ffe83b8       0x1a c:/Espressif/ESP8266_SDK/lib\libmain.a(mem_manager.o)
 *fill*         0x3ffe83d2        0x2 
 .rodata._ZL14EspDigitalPins
                0x3ffe83d4       0xc0 c:/tools/sming/Sming/compiler/lib/\libsming.a(user_main.o)
 .rodata._ZTV6VectorI8DelegateIFvvEEE
                0x3ffe8494       0x1c c:/tools/sming/Sming/compiler/lib/\libsming.a(System.o)
                0x3ffe8494                vtable for Vector<Delegate<void ()> >
 .rodata._ZTV6VectorIP19ISystemReadyHandlerE
                0x3ffe84b0       0x1c c:/tools/sming/Sming/compiler/lib/\libsming.a(System.o)
                0x3ffe84b0                vtable for Vector<ISystemReadyHandler*>
 .rodata.str1.1
                0x3ffe84cc       0x21 c:/tools/sming/Sming/compiler/lib/\libsming.a(stringconversion.o)
 *fill*         0x3ffe84ed        0x3 
 .rodata._ZTV9IPAddress
                0x3ffe84f0        0xc c:/tools/sming/Sming/compiler/lib/\libsming.a(IPAddress.o)
                0x3ffe84f0                vtable for IPAddress
 .rodata.str1.1
                0x3ffe84fc       0x23 c:/tools/sming/Sming/compiler/lib/\libsming.a(Digital.o)
 *fill*         0x3ffe851f        0x1 
 .rodata._ZL14EspDigitalPins
                0x3ffe8520       0xc0 c:/tools/sming/Sming/compiler/lib/\libsming.a(Digital.o)
 .rodata.str1.1
                0x3ffe85e0        0xc c:/tools/sming/Sming/compiler/lib/\libmicroc.a(abort.o)
 .rodata.str1.4
                0x3ffe85ec        0x4 c:/Espressif/ESP8266_SDK/lib\libpp.a(lmac.o)
                                  0xc (size before relaxing)
 .rodata.str1.4
                0x3ffe85f0        0x4 c:/Espressif/ESP8266_SDK/lib\libpp.a(pm_for_bcn_only_mode.o)
                                  0xc (size before relaxing)
 .rodata.str1.4
                0x3ffe85f4        0x8 c:/Espressif/ESP8266_SDK/lib\libpp.a(pp.o)
                                 0x10 (size before relaxing)
 .rodata.str1.4
                0x3ffe85fc        0x4 c:/Espressif/ESP8266_SDK/lib\libpp.a(wdev.o)
                                  0xc (size before relaxing)
 .rodata.str1.4
                0x3ffe8600        0x3 c:/Espressif/ESP8266_SDK/lib\libnet80211.a(ieee80211_hostap.o)
                                  0x8 (size before relaxing)
 *fill*         0x3ffe8603        0x1 
 .rodata.str1.4
                0x3ffe8604        0x7 c:/Espressif/ESP8266_SDK/lib\libnet80211.a(ieee80211_mesh_quick.o)
 .rodata.str1.4
                0x00000000        0x4 c:/Espressif/ESP8266_SDK/lib\libnet80211.a(ieee80211_sta.o)
 .rodata.str1.4
                0x00000000        0x4 c:/Espressif/ESP8266_SDK/lib\libnet80211.a(ieee80211_action_vendor.o)
 .rodata.str1.4
                0x00000000        0x4 c:/Espressif/ESP8266_SDK/lib\libnet80211.a(ieee80211_ie_vendor.o)
 .rodata.str1.4
                0x00000000        0x7 c:/Espressif/ESP8266_SDK/lib\liblwip.a(espconn_tcp.o)
                                  0x1 (size before relaxing)
 *fill*         0x3ffe860b        0x1 
 .rodata.str1.4
                0x3ffe860c       0x10 c:/Espressif/ESP8266_SDK/lib\libwpa.a(wpa_debug.o)
                                  0xd (size before relaxing)
 *(.gnu.linkonce.r.*)
 *(.rodata1)
                0x3ffe861c                __XT_EXCEPTION_TABLE__ = ABSOLUTE (.)
 *(.xt_except_table)
 *(.gcc_except_table)
 *(.gnu.linkonce.e.*)
 *(.gnu.version_r)
 *(.eh_frame)
                0x3ffe861c                . = ((. + 0x3) & 0xfffffffc)
                0x3ffe861c                __dso_handle = ABSOLUTE (.)
                0x3ffe861c                __init_array_start = ABSOLUTE (.)
 *crtbegin.o(.ctors)
 *(EXCLUDE_FILE(*crtend.o) .ctors)
 .ctors         0x3ffe861c        0x4 c:/tools/sming/Sming/compiler/lib/\libsming.a(user_main.o)
 .ctors         0x3ffe8620        0x4 c:/tools/sming/Sming/compiler/lib/\libsming.a(System.o)
 .ctors         0x3ffe8624        0x4 c:/tools/sming/Sming/compiler/lib/\libsming.a(m_printf.o)
 .ctors         0x3ffe8628        0x4 c:/tools/sming/Sming/compiler/lib/\libsming.a(IPAddress.o)
 .ctors         0x3ffe862c        0x4 c:/tools/sming/Sming/compiler/lib/\libsming.a(Print.o)
 .ctors         0x3ffe8630        0x4 c:/tools/sming/Sming/compiler/lib/\libsming.a(WString.o)
 .ctors         0x3ffe8634        0x4 c:/tools/sming/Sming/compiler/lib/\libsming.a(Interrupts.o)
 .ctors         0x3ffe8638        0x4 c:/tools/sming/Sming/compiler/lib/\libsming.a(Digital.o)
 .ctors         0x3ffe863c        0x4 out/build/app_app.a(application.o)
 *(SORT(.ctors.*))
 *(.ctors)
                0x3ffe8640                __init_array_end = ABSOLUTE (.)
 *crtbegin.o(.dtors)
 *(EXCLUDE_FILE(*crtend.o) .dtors)
 .dtors         0x3ffe8640        0x4 c:/tools/sming/Sming/compiler/lib/\libsming.a(System.o)
 .dtors         0x3ffe8644        0x4 c:/tools/sming/Sming/compiler/lib/\libsming.a(Interrupts.o)
 .dtors         0x3ffe8648        0x4 out/build/app_app.a(application.o)
 *(SORT(.dtors.*))
 *(.dtors)
                0x3ffe864c                __XT_EXCEPTION_DESCS__ = ABSOLUTE (.)
 *(.xt_except_desc)
 *(.gnu.linkonce.h.*)
                0x3ffe864c                __XT_EXCEPTION_DESCS_END__ = ABSOLUTE (.)
 *(.xt_except_desc_end)
 *(.dynamic)
 *(.gnu.version_d)
                0x3ffe864c                . = ALIGN (0x4)
                0x3ffe864c                _bss_table_start = ABSOLUTE (.)
                0x3ffe864c        0x4 LONG 0x3ffe8658 _bss_start
                0x3ffe8650        0x4 LONG 0x3ffeea20 _bss_end
                0x3ffe8654                _bss_table_end = ABSOLUTE (.)
                0x3ffe8654                _rodata_end = ABSOLUTE (.)

.bss            0x3ffe8658     0x63c8
                0x3ffe8658                . = ALIGN (0x8)
                0x3ffe8658                _bss_start = ABSOLUTE (.)
 *(.dynsbss)
 *(.sbss)
 *(.sbss.*)
 *(.gnu.linkonce.sb.*)
 *(.scommon)
 *(.sbss2)
 *(.sbss2.*)
 *(.gnu.linkonce.sb2.*)
 *(.dynbss)
 *(.bss)
 *fill*         0x3ffe8658        0x8 
 .bss           0x3ffe8660      0x1c0 c:/Espressif/ESP8266_SDK/lib\libmain.a(nmi-vector.o)
 .bss           0x3ffe8820       0x41 c:/Espressif/ESP8266_SDK/lib\libmain.a(app_main.o)
                0x3ffe8824                info
                0x3ffe8848                lwip_timer_interval
                0x3ffe884c                check_timeouts_timer
                0x3ffe8860                user_init_flag
 *fill*         0x3ffe8861        0xf 
 .bss           0x3ffe8870       0x30 c:/Espressif/ESP8266_SDK/lib\libmain.a(ets_timer.o)
                0x3ffe8870                timer_list
                0x3ffe8874                debug_timer
                0x3ffe8878                debug_timerfn
 .bss           0x3ffe88a0       0x3c c:/Espressif/ESP8266_SDK/lib\libmain.a(mem_manager.o)
 .bss           0x3ffe88dc        0x4 c:/Espressif/ESP8266_SDK/lib\libmain.a(spi_flash.o)
                0x3ffe88dc                flash_read
 .bss           0x3ffe88e0      0x242 c:/Espressif/ESP8266_SDK/lib\libmain.a(user_interface.o)
                0x3ffe89d7                deep_sleep_flag
                0x3ffe89d8                cpu_overclock
                0x3ffe89dc                event_cb
                0x3ffe89e0                status_led_output_level
                0x3ffe89e4                done_cb
                0x3ffe89e8                rst_if
                0x3ffe8a04                default_interface
                0x3ffe8a05                OpmodChgIsOnGoing
                0x3ffe8a08                promiscuous_cb
                0x3ffe8a20                event_TaskQueue
 *fill*         0x3ffe8b22        0x2 
 .bss           0x3ffe8b24        0xc c:/Espressif/ESP8266_SDK/lib\libmain.a(eagle_lwip_if.o)
                0x3ffe8b24                hostname
 .bss           0x3ffe8b30        0x4 c:/Espressif/ESP8266_SDK/lib\libphy.a(phy.o)
 .bss           0x3ffe8b34        0x2 c:/Espressif/ESP8266_SDK/lib\libphy.a(phy_chip_v6_ana.o)
                0x3ffe8b34                tout_dis_txpwr_track
                0x3ffe8b35                sleep_mode_flag
 *fill*         0x3ffe8b36        0x2 
 .bss           0x3ffe8b38      0x160 c:/Espressif/ESP8266_SDK/lib\libphy.a(phy_chip_v6.o)
                0x3ffe8b38                g_phyFuns
                0x3ffe8b3c                rxiq_compute_num
                0x3ffe8b40                rx_table_renew_en
                0x3ffe8b44                check_result
                0x3ffe8b48                chip6_sleep_params
                0x3ffe8bdc                chip6_phy_init_ctrl
                0x3ffe8c50                phy_freq_offset
                0x3ffe8c52                do_pwctrl_flag
                0x3ffe8c53                pwctrl_debug
                0x3ffe8c54                txbk_dpdby_flag
                0x3ffe8c56                sw_scan_mode
                0x3ffe8c57                rxmax_ext_level
                0x3ffe8c58                phy_rx_gain_dc_table
                0x3ffe8c6c                periodic_cal_dc_num
                0x3ffe8c70                periodic_cal_flag
                0x3ffe8c71                bbpll_cal_flag
                0x3ffe8c72                phy_in_most_power
                0x3ffe8c73                init_rf_no_cal
                0x3ffe8c74                test_print_time
                0x3ffe8c78                phy_rx_gain_dc_flag
                0x3ffe8c79                phy_in_vdd33_offset
                0x3ffe8c7a                phy_set_most_tpw_disbg
                0x3ffe8c7b                phy_set_most_tpw_index
                0x3ffe8c7c                adc_rand_noise
                0x3ffe8c80                dpd_bypass_original
                0x3ffe8c88                noise_array
 .bss           0x3ffe8c98        0x8 c:/Espressif/ESP8266_SDK/lib\libphy.a(phy_chip_v6_cal.o)
                0x3ffe8c98                phy_tx_power_out
                0x3ffe8c9a                loop_pwctrl_pwdet_error_accum_high_power
                0x3ffe8c9c                tx_pwctrl_pk_num
                0x3ffe8c9d                tx_pwctrl_track_num
                0x3ffe8c9e                loop_pwctrl_correct_atten_high_power
                0x3ffe8c9f                rxiq_cover_fail_num
 .bss           0x3ffe8ca0        0x7 c:/Espressif/ESP8266_SDK/lib\libphy.a(phy_sleep.o)
                0x3ffe8ca0                periodic_cal_sat
                0x3ffe8ca2                lslp_mem_opt_8266
                0x3ffe8ca4                software_slp_reject
                0x3ffe8ca5                SDIO_slp_reject
                0x3ffe8ca6                hardware_reject
 *fill*         0x3ffe8ca7        0x9 
 .bss           0x3ffe8cb0       0x40 c:/Espressif/ESP8266_SDK/lib\libpp.a(if_hwctrl.o)
                0x3ffe8cb0                interface_mask
                0x3ffe8cd0                if_ctrl
 .bss           0x3ffe8cf0      0x150 c:/Espressif/ESP8266_SDK/lib\libpp.a(lmac.o)
                0x3ffe8cf4                lmacConfMib
 .bss           0x3ffe8e40      0x11a c:/Espressif/ESP8266_SDK/lib\libpp.a(pm.o)
                0x3ffe8e40                pmc
                0x3ffe8f20                flash_tmp
 *fill*         0x3ffe8f5a        0x2 
 .bss           0x3ffe8f5c       0x34 c:/Espressif/ESP8266_SDK/lib\libpp.a(pm_for_bcn_only_mode.o)
 .bss           0x3ffe8f90      0x322 c:/Espressif/ESP8266_SDK/lib\libpp.a(pp.o)
                0x3ffe8fa8                pend_flag_noise_check
                0x3ffe8fb0                pend_flag_periodic_cal
                0x3ffe8fc8                idle_timer_reopen_flag
                0x3ffe8fca                dbg_stop_sw_wdt
                0x3ffe8fcb                dbg_stop_hw_wdt
                0x3ffe8fcd                total_buffed_eb_num
                0x3ffe8fd0                HighestFreqOffsetInOneChk
                0x3ffe8fd2                LowestFreqOffsetInOneChk
                0x3ffe8fd4                DefFreqCalTimer
                0x3ffe8fe8                PktNumInOneChk
                0x3ffe9170                buffed_eb_arr
 *fill*         0x3ffe92b2        0xe 
 .bss           0x3ffe92c0      0x100 c:/Espressif/ESP8266_SDK/lib\libpp.a(rate_control.o)
 .bss           0x3ffe93c0      0x46c c:/Espressif/ESP8266_SDK/lib\libpp.a(trc.o)
 *fill*         0x3ffe982c        0x4 
 .bss           0x3ffe9830     0x2f88 c:/Espressif/ESP8266_SDK/lib\libpp.a(wdev.o)
                0x3ffe9830                wDevCtrl
                0x3ffe99d8                WdevTimOffSet
 *fill*         0x3ffec7b8        0x8 
 .bss           0x3ffec7c0      0xac4 c:/Espressif/ESP8266_SDK/lib\libpp.a(esf_buf.o)
 .bss           0x3ffed284      0x67c c:/Espressif/ESP8266_SDK/lib\libnet80211.a(ieee80211.o)
                0x3ffed284                g_ic
 .bss           0x3ffed900       0x56 c:/Espressif/ESP8266_SDK/lib\libnet80211.a(ieee80211_hostap.o)
                0x3ffed900                BcnEb_update
                0x3ffed90d                BcnWithMcastSendStart
                0x3ffed90e                BcnWithMcastSendCnt
                0x3ffed928                PendFreeBcnEb
                0x3ffed92c                ApFreqCalTimer
                0x3ffed940                APRecvBcnStartTick
 *fill*         0x3ffed956        0x2 
 .bss           0x3ffed958       0xc8 c:/Espressif/ESP8266_SDK/lib\libnet80211.a(ieee80211_scan.o)
                0x3ffed958                gScanStruct
                0x3ffeda04                connect_scan_flag
                0x3ffeda05                FreqCalCntForScan
                0x3ffeda06                TestStaFreqCalValInput
                0x3ffeda08                auth_type
                0x3ffeda0a                scannum
 .bss           0x3ffeda20       0x10 c:/Espressif/ESP8266_SDK/lib\libnet80211.a(ieee80211_sta.o)
 .bss           0x3ffeda30       0x3c c:/Espressif/ESP8266_SDK/lib\libnet80211.a(wl_chm.o)
 *fill*         0x3ffeda6c        0x4 
 .bss           0x3ffeda70      0x37a c:/Espressif/ESP8266_SDK/lib\libnet80211.a(wl_cnx.o)
                0x3ffeddd0                sta_con_timer
                0x3ffedde4                g_cnx_probe_rc_list_cb
                0x3ffedde8                reconnect_flag
                0x3ffedde9                no_ap_found_index
 *fill*         0x3ffeddea        0x2 
 .bss           0x3ffeddec       0x10 c:/Espressif/ESP8266_SDK/lib\libnet80211.a(ieee80211_action_vendor.o)
 *fill*         0x3ffeddfc        0x4 
 .bss           0x3ffede00       0x38 c:/Espressif/ESP8266_SDK/lib\liblwip.a(dhcp.o)
                0x3ffede00                dhcp_rx_options_given
                0x3ffede10                dhcp_rx_options_val
 .bss           0x3ffede38       0x28 c:/Espressif/ESP8266_SDK/lib\liblwip.a(dhcpserver.o)
 .bss           0x3ffede60      0x480 c:/Espressif/ESP8266_SDK/lib\liblwip.a(dns.o)
 .bss           0x3ffee2e0       0x78 c:/Espressif/ESP8266_SDK/lib\liblwip.a(espconn_tcp.o)
                0x3ffee2e0                espconn_TaskQueue
 *fill*         0x3ffee358        0x8 
 .bss           0x3ffee360      0x100 c:/Espressif/ESP8266_SDK/lib\liblwip.a(etharp.o)
                0x3ffee364                ethzero
 .bss           0x3ffee460       0x10 c:/Espressif/ESP8266_SDK/lib\liblwip.a(ip_addr.o)
 .bss           0x3ffee470       0x12 c:/Espressif/ESP8266_SDK/lib\liblwip.a(ip.o)
                0x3ffee470                current_iphdr_dest
                0x3ffee474                current_iphdr_src
                0x3ffee478                current_netif
                0x3ffee47c                current_header
 *fill*         0x3ffee482        0x2 
 .bss           0x3ffee484        0x9 c:/Espressif/ESP8266_SDK/lib\liblwip.a(netif.o)
                0x3ffee484                netif_list
                0x3ffee488                netif_default
 *fill*         0x3ffee48d        0x3 
 .bss           0x3ffee490        0x4 c:/Espressif/ESP8266_SDK/lib\liblwip.a(raw.o)
 .bss           0x3ffee494       0x34 c:/Espressif/ESP8266_SDK/lib\liblwip.a(tcp_in.o)
                0x3ffee4c4                tcp_input_pcb
 .bss           0x3ffee4c8       0x1c c:/Espressif/ESP8266_SDK/lib\liblwip.a(tcp.o)
                0x3ffee4cc                tcp_active_pcbs
                0x3ffee4d0                tcp_tmp_pcb
                0x3ffee4d4                tcp_tw_pcbs
                0x3ffee4d8                tcp_bound_pcbs
                0x3ffee4dc                tcp_listen_pcbs
                0x3ffee4e0                tcp_ticks
 .bss           0x3ffee4e4        0xc c:/Espressif/ESP8266_SDK/lib\liblwip.a(timers.o)
 .bss           0x3ffee4f0        0x4 c:/Espressif/ESP8266_SDK/lib\liblwip.a(udp.o)
                0x3ffee4f0                udp_pcbs
 *fill*         0x3ffee4f4        0xc 
 .bss           0x3ffee500      0x104 c:/Espressif/ESP8266_SDK/lib\liblwip.a(espconn.o)
                0x3ffee500                plink_active
                0x3ffee504                pserver_list
                0x3ffee510                premot
                0x3ffee5d0                pktinfo
 .bss           0x3ffee604        0xc c:/Espressif/ESP8266_SDK/lib\liblwip.a(igmp.o)
 .bss           0x3ffee610      0x26a c:/Espressif/ESP8266_SDK/lib\libwpa.a(wpa.o)
 *fill*         0x3ffee87a        0x6 
 .bss           0x3ffee880        0x8 c:/Espressif/ESP8266_SDK/lib\libnet80211.a(ieee80211_crypto_tkip.o)
 *(.bss.*)
 .bss._ZL5ESP01
                0x3ffee888       0x30 c:/tools/sming/Sming/compiler/lib/\libsming.a(user_main.o)
 .bss._ZL11INADDR_NONE
                0x3ffee8b8        0x8 c:/tools/sming/Sming/compiler/lib/\libsming.a(user_main.o)
 .bss.System    0x3ffee8c0       0x2c c:/tools/sming/Sming/compiler/lib/\libsming.a(System.o)
                0x3ffee8c0                System
 .bss._ZL5ESP01
                0x3ffee8ec       0x30 c:/tools/sming/Sming/compiler/lib/\libsming.a(m_printf.o)
 .bss._ZL11INADDR_NONE
                0x3ffee91c        0x8 c:/tools/sming/Sming/compiler/lib/\libsming.a(m_printf.o)
 .bss._ZL5ESP01
                0x3ffee924       0x30 c:/tools/sming/Sming/compiler/lib/\libsming.a(IPAddress.o)
 .bss._ZL11INADDR_NONE
                0x3ffee954        0x8 c:/tools/sming/Sming/compiler/lib/\libsming.a(Print.o)
 .bss._ZL11INADDR_NONE
                0x3ffee95c        0x8 c:/tools/sming/Sming/compiler/lib/\libsming.a(WString.o)
 .bss._delegateFunctionList
                0x3ffee964       0x40 c:/tools/sming/Sming/compiler/lib/\libsming.a(Interrupts.o)
                0x3ffee964                _delegateFunctionList
 .bss._ZL11INADDR_NONE
                0x3ffee9a4        0x8 c:/tools/sming/Sming/compiler/lib/\libsming.a(Interrupts.o)
 .bss._ZL11INADDR_NONE
                0x3ffee9ac        0x8 c:/tools/sming/Sming/compiler/lib/\libsming.a(Digital.o)
 *fill*         0x3ffee9b4        0x4 
 .bss.procTimer
                0x3ffee9b8       0x30 out/build/app_app.a(application.o)
                0x3ffee9b8                procTimer
 .bss._ZL5ESP01
                0x3ffee9e8       0x30 out/build/app_app.a(application.o)
 .bss._ZL11INADDR_NONE
                0x3ffeea18        0x8 out/build/app_app.a(application.o)
 *(.gnu.linkonce.b.*)
 *(COMMON)
                0x3ffeea20                . = ALIGN (0x8)
                0x3ffeea20                _bss_end = ABSOLUTE (.)
                0x3ffeea20                _heap_start = ABSOLUTE (.)

.irom0.text     0x40209000    0x2e880
                0x40209000                _irom0_text_start = ABSOLUTE (.)
 *(.irom0.literal .irom.literal .irom.text.literal .irom0.text .irom.text)
 .irom0.text    0x40209000      0xa1d c:/Espressif/ESP8266_SDK/lib\libmain.a(app_main.o)
                                0xc31 (size before relaxing)
                0x402091e8                wdt_init
                0x40209290                user_uart_wait_tx_fifo_empty
                0x40209544                user_rf_pre_init
 *fill*         0x40209a1d        0x3 
 .irom0.text    0x40209a20      0x186 c:/Espressif/ESP8266_SDK/lib\libmain.a(ets_timer.o)
                                0x1b2 (size before relaxing)
                0x40209a28                ets_timer_done
                0x40209a74                ets_timer_handler_isr
                0x40209b44                ets_timer_init
 *fill*         0x40209ba6        0x2 
 .irom0.text    0x40209ba8       0xec c:/Espressif/ESP8266_SDK/lib\libmain.a(mem_manager.o)
                                 0xf8 (size before relaxing)
                0x40209ba8                check_memleak_debug_enable
                0x40209c14                xPortGetFreeHeapSize
                0x40209c1c                vPortInitialiseBlocks
 .irom0.text    0x40209c94     0x3429 c:/Espressif/ESP8266_SDK/lib\libmain.a(user_interface.o)
                               0x3e31 (size before relaxing)
                0x40209c98                system_set_os_print
                0x40209ca8                system_get_os_print
                0x40209e70                system_pp_recycle_rx_pkt
                0x40209e84                system_adc_read
                0x40209e9c                system_get_vdd33
                0x40209eb4                system_restart_hook
                0x40209ecc                system_restart_local
                0x40209fac                system_restart
                0x4020a008                system_restore
                0x4020a070                system_get_flash_size_map
                0x4020a090                system_get_boot_version
                0x4020a0c8                system_get_test_result
                0x4020a0f0                system_get_userbin_addr
                0x4020a188                system_get_boot_mode
                0x4020a1b8                system_restart_enhance
                0x4020a2e8                system_upgrade_userbin_set
                0x4020a334                system_upgrade_userbin_check
                0x4020a374                system_upgrade_flag_set
                0x4020a388                system_upgrade_flag_check
                0x4020a3b0                system_upgrade_reboot
                0x4020a4e4                system_deep_sleep_instant
                0x4020a67c                system_deep_sleep
                0x4020a6dc                system_deep_sleep_set_option
                0x4020a6f8                system_phy_temperature_alert
                0x4020a70c                system_phy_set_max_tpw
                0x4020a720                system_phy_set_tpw_via_vdd33
                0x4020a734                system_phy_set_rfoption
                0x4020a748                system_phy_set_powerup_option
                0x4020a760                system_update_cpu_freq
                0x4020a7bc                system_get_cpu_freq
                0x4020a7d4                system_overclock
                0x4020a800                system_restoreclock
                0x4020a830                system_timer_reinit
                0x4020a848                system_relative_time
                0x4020a86c                system_station_got_ip_set
                0x4020a998                system_print_meminfo
                0x4020a9f8                system_get_free_heap_size
                0x4020aa10                system_get_chip_id
                0x4020aa34                system_rtc_clock_cali_proc
                0x4020aa48                system_get_rtc_time
                0x4020aa5c                system_mktime
                0x4020ab2c                system_init_done_cb
                0x4020ab34                system_get_rst_info
                0x4020ab3c                system_get_data_of_array_8
                0x4020ab60                system_get_data_of_array_16
                0x4020ab88                system_get_string_from_flash
                0x4020abf4                wifi_softap_dhcps_start
                0x4020ac3c                wifi_softap_dhcps_stop
                0x4020ac7c                wifi_softap_dhcps_status
                0x4020ac84                wifi_station_dhcpc_start
                0x4020acdc                wifi_station_dhcpc_stop
                0x4020ad1c                wifi_station_dhcpc_event
                0x4020ad90                wifi_station_dhcpc_set_maxtry
                0x4020ada0                wifi_station_dhcpc_status
                0x4020ae18                wifi_get_opmode
                0x4020ae2c                wifi_get_opmode_default
                0x4020aea8                wifi_get_broadcast_if
                0x4020aee4                wifi_set_broadcast_if
                0x4020b044                wifi_set_opmode
                0x4020b058                wifi_set_opmode_current
                0x4020b06c                system_get_checksum
                0x4020b0ac                wifi_param_save_protect_with_check
                0x4020b140                system_param_save_with_protect
                0x4020b1e8                system_save_sys_param
                0x4020b214                system_param_load
                0x4020b34c                wifi_station_get_config
                0x4020b360                wifi_station_get_config_default
                0x4020b380                wifi_station_get_ap_info
                0x4020b438                wifi_station_ap_number_set
                0x4020b79c                wifi_station_set_config
                0x4020b7b4                wifi_station_set_config_current
                0x4020b7cc                wifi_station_restore_config
                0x4020b7e4                wifi_station_get_current_ap_id
                0x4020b7f8                wifi_station_ap_check
                0x4020b840                wifi_station_ap_change
                0x4020b96c                wifi_station_scan
                0x4020b9b8                wifi_station_get_auto_connect
                0x4020b9cc                wifi_station_set_auto_connect
                0x4020ba1c                wifi_station_save_pmk2cache
                0x4020bad0                wifi_station_connect
                0x4020bb64                wifi_station_disconnect
                0x4020bc24                wifi_station_get_connect_status
                0x4020bc54                wifi_station_set_reconnect_policy
                0x4020bc6c                wifi_station_get_reconnect_policy
                0x4020bc74                wifi_station_get_rssi
                0x4020bcc4                wifi_station_set_default_hostname
                0x4020bd2c                wifi_station_get_hostname
                0x4020bd5c                wifi_station_set_hostname
                0x4020bdfc                wifi_softap_cacl_mac
                0x4020be6c                wifi_softap_set_default_ssid
                0x4020c04c                wifi_softap_get_config
                0x4020c060                wifi_softap_get_config_default
                0x4020c3b4                wifi_softap_set_config
                0x4020c3c8                wifi_softap_set_config_current
                0x4020c3dc                wifi_softap_set_station_info
                0x4020c448                wifi_softap_get_station_info
                0x4020c4f8                wifi_softap_free_station_info
                0x4020c540                wifi_softap_get_station_num
                0x4020c594                wifi_softap_deauth
                0x4020c644                wifi_softap_get_beacon_only_mode
                0x4020c658                wifi_softap_set_beacon_only_mode
                0x4020c6bc                wifi_register_user_ie_manufacturer_recv_cb
                0x4020c6d0                wifi_unregister_user_ie_manufacturer_recv_cb
                0x4020c704                wifi_set_user_ie
                0x4020c814                wifi_get_user_ie
                0x4020c848                wifi_get_phy_mode
                0x4020c850                wifi_set_phy_mode
                0x4020c918                wifi_set_sleep_type
                0x4020c934                wifi_get_sleep_type
                0x4020c94c                wifi_get_channel
                0x4020c964                wifi_set_channel
                0x4020c9a8                wifi_promiscuous_set_mac
                0x4020ca08                wifi_promiscuous_enable
                0x4020caec                wifi_set_promiscuous_rx_cb
                0x4020cafc                wifi_get_ip_info
                0x4020cb7c                wifi_set_ip_info
                0x4020cbf0                wifi_get_macaddr
                0x4020cc50                wifi_set_macaddr
                0x4020cd6c                wifi_enable_6m_rate
                0x4020cd74                wifi_get_user_fixed_rate
                0x4020cd94                wifi_set_user_fixed_rate
                0x4020cdb4                wifi_set_user_sup_rate
                0x4020cdf0                wifi_set_user_rate_limit
                0x4020ce14                wifi_get_user_limit_rate_mask
                0x4020ce1c                wifi_set_user_limit_rate_mask
                0x4020ce34                wifi_register_send_pkt_freedom_cb
                0x4020ce48                wifi_unregister_send_pkt_freedom_cb
                0x4020ce54                wifi_send_pkt_freedom
                0x4020cea0                wifi_rfid_locp_recv_open
                0x4020ceb4                wifi_rfid_locp_recv_close
                0x4020cec8                wifi_register_rfid_locp_recv_cb
                0x4020cedc                wifi_unregister_rfid_locp_recv_cb
                0x4020cef4                wifi_status_led_install
                0x4020cf28                wifi_status_led_uninstall
                0x4020cf4c                wifi_set_status_led_output_level
                0x4020cfa0                wifi_set_event_handler_cb
                0x4020cfe8                system_os_task
                0x4020d024                system_uart_swap
                0x4020d084                system_uart_de_swap
                0x4020d0b8                system_get_sdk_version
 *fill*         0x4020d0bd        0x3 
 .irom0.text    0x4020d0c0      0x610 c:/Espressif/ESP8266_SDK/lib\libmain.a(eagle_lib.o)
                                0x620 (size before relaxing)
                0x4020d0c4                divide
                0x4020d100                skip_atoi
                0x4020d280                ets_vsnprintf
                0x4020d5e0                ets_vsprintf
                0x4020d604                ets_sprintf
                0x4020d62c                ets_strcat
                0x4020d64c                ets_strrchr
                0x4020d678                ets_strchr
                0x4020d690                bit_popcount
                0x4020d6ac                ets_snprintf
 .irom0.text    0x4020d6d0      0x2f6 c:/Espressif/ESP8266_SDK/lib\libmain.a(eagle_lwip_if.o)
                                0x3b2 (size before relaxing)
                0x4020d788                eagle_lwip_if_alloc
                0x4020d938                eagle_lwip_if_free
                0x4020d9a4                eagle_lwip_getif
 *fill*         0x4020d9c6        0x2 
 .irom0.literal
                0x4020d9c8        0x4 c:/tools/sming/Sming/compiler/lib/\libmicroc.a(malloc.o)
                                 0x14 (size before relaxing)
 .irom0.literal
                0x4020d9cc        0x4 c:/tools/sming/Sming/compiler/lib/\libmicroc.a(abort.o)
                                  0x8 (size before relaxing)
 .irom0.literal
                0x4020d9d0        0x8 c:/tools/sming/Sming/compiler/lib/\libmicrogcc.a(_divsf3.o)
                                 0x10 (size before relaxing)
 .irom0.text    0x4020d9d8       0x65 c:/tools/sming/Sming/compiler/lib/\libmicroc.a(malloc.o)
                0x4020d9d8                malloc
                0x4020d9ec                free
                0x4020da00                realloc
                0x4020da14                zalloc
                0x4020da28                calloc
 *fill*         0x4020da3d        0x3 
 .irom0.text    0x4020da40       0x11 c:/tools/sming/Sming/compiler/lib/\libmicroc.a(abort.o)
                0x4020da40                abort
 *fill*         0x4020da51        0x3 
 .irom0.text    0x4020da54       0xfa c:/Espressif/ESP8266_SDK/lib\libphy.a(phy.o)
                                0x11e (size before relaxing)
                0x4020da58                rf_init
                0x4020da74                bb_init
                0x4020da8c                phy_init
                0x4020dabc                RFChannelSel
                0x4020dad8                phy_delete_channel
                0x4020daf0                phy_enable_agc
                0x4020db08                phy_disable_agc
                0x4020db20                phy_initialize_bb
                0x4020db38                phy_set_sense
 *fill*         0x4020db4e        0x2 
 .irom0.text    0x4020db50     0x16f7 c:/Espressif/ESP8266_SDK/lib\libphy.a(phy_chip_v6_ana.o)
                               0x18e3 (size before relaxing)
                0x4020db54                ram_pbus_set_rxgain
                0x4020dc2c                ram_pbus_debugmode
                0x4020dce0                ram_pbus_xpd_tx_on
                0x4020dd4c                set_rf_freq_offset
                0x4020ddc0                chip_v6_rxmax_ext_ana
                0x4020df14                ram_chip_v6_rx_init
                0x4020df48                tsen_meas
                0x4020dff8                readvdd33
                0x4020e1c4                txpwr_offset
                0x4020e280                set_txcap_reg
                0x4020e300                ram_ana_inf_gating_en
                0x4020e460                ram_restart_cal
                0x4020e4cc                wait_rfpll_cal_end
                0x4020e560                ram_rfpll_set_freq
                0x4020e66c                ram_set_channel_freq
                0x4020e96c                chip_60_set_channel
                0x4020eafc                chip_v6_set_chan_offset
                0x4020eb38                chip_v6_set_chan
                0x4020ebcc                chip_v6_set_chan_wakeup
                0x4020ec50                chip_v6_rf_init
                0x4020ee74                low_power_set
                0x4020eec8                test_tout
                0x4020f040                check_data_flag
                0x4020f060                phy_get_check_flag
                0x4020f194                phy_get_vdd33
 *fill*         0x4020f247        0x1 
 .irom0.text    0x4020f248     0x3c2f c:/Espressif/ESP8266_SDK/lib\libphy.a(phy_chip_v6.o)
                               0x4293 (size before relaxing)
                0x4020f248                ram_tx_mac_enable
                0x4020f24c                ram_tx_mac_disable
                0x4020f250                rtc_mem_backup
                0x4020f280                rtc_mem_recovery
                0x4020f2b0                set_cal_rxdc
                0x4020f364                set_rx_gain_cal_iq
                0x4020f6c0                gen_rx_gain_table
                0x4020f818                pbus_set_rxbbgain
                0x4020f898                set_rx_gain_testchip_50
                0x4020fbcc                ram_get_corr_power
                0x4020fcbc                check_data_func
                0x4020fcdc                do_noisefloor_lsleep_v50
                0x4020fd10                do_noisefloor
                0x4020fd80                start_dig_rx
                0x4020fdc4                stop_dig_rx
                0x4020fdf0                chip_v6_set_chanfreq
                0x4020fe1c                tx_cap_init
                0x4020ffd0                target_power_add_backoff
                0x40210020                tx_pwctrl_init_cal
                0x40210188                tx_atten_set_interp
                0x402103f8                tx_pwctrl_init
                0x402104ec                ram_get_noisefloor
                0x40210508                get_noisefloor_sat
                0x40210538                ram_set_noise_floor
                0x40210594                ram_start_noisefloor
                0x402105e0                read_hw_noisefloor
                0x4021060c                noise_check_loop
                0x40210768                noise_init
                0x40210968                target_power_backoff
                0x402109bc                sdt_on_noise_start
                0x40210a3c                chip_v6_set_chan_rx_cmp
                0x40210bc8                chip_v6_set_chan_misc
                0x40210c5c                phy_dig_spur_set
                0x40210fb4                phy_dig_spur_prot
                0x402111ec                chip_v6_rxmax_ext_dig
                0x40211238                chip_v6_rxmax_ext
                0x402112ec                phy_bb_rx_cfg
                0x402116f4                uart_wait_idle
                0x4021172c                phy_pbus_soc_cfg
                0x402117ec                phy_gpio_cfg
                0x40211b34                tx_cont_en
                0x40211bd8                tx_cont_dis
                0x40211c2c                tx_cont_cfg
                0x40211c4c                chip_v6_initialize_bb
                0x40211db4                periodic_cal
                0x40211e94                bbpll_cal
                0x40211f2c                periodic_cal_top
                0x40211f8c                register_chipv6_phy_init_param
                0x40212230                change_bbpll160_sleep
                0x4021235c                change_bbpll160
                0x40212394                set_crystal_uart
                0x4021242c                ant_switch_init
                0x402124d8                reduce_current_init
                0x40212540                rtc_mem_check
                0x4021257c                phy_afterwake_set_rfoption
                0x4021259c                deep_sleep_set_option
                0x402125c8                write_data_to_rtc
                0x40212600                get_data_from_rtc
                0x40212688                register_chipv6_phy
                0x40212a98                set_dpd_bypass
                0x40212ac0                set_rf_gain_stage10
                0x40212af0                get_vdd33_offset
                0x40212b64                get_phy_target_power
                0x40212c18                set_most_pwr_reg
                0x40212cec                phy_set_most_tpw
                0x40212d0c                phy_vdd33_set_tpw
                0x40212d24                get_adc_rand
                0x40212d58                phy_get_rand
                0x40212d70                phy_tx_pwctrl_cali
                0x40212d98                phy_check_data_table
                0x40212dd4                phy_after_init_enrx
                0x40212e38                phy_set_rx11b_reg
                0x40212e6c                phy_set_powerup_option
 *fill*         0x40212e77        0x1 
 .irom0.text    0x40212e78     0x21ac c:/Espressif/ESP8266_SDK/lib\libphy.a(phy_chip_v6_cal.o)
                               0x23ec (size before relaxing)
                0x40212e78                txbbgain2dcoindex
                0x40212e98                dcoindex2txbbgain
                0x40212ebc                init_cal_dcoffset
                0x40212f80                set_rfanagain_dc_reg
                0x4021301c                set_txdc_pbus
                0x40213088                get_rf_gain_qdb
                0x402130b0                correct_rf_ana_gain
                0x402131b8                get_sar_dout
                0x40213250                cal_rf_ana_gain
                0x40213328                meas_tone_pwr_db
                0x40213398                tx_pwr_backoff
                0x402134e4                get_fcc_1m2m_pwr_offset
                0x40213520                ram_set_txbb_atten
                0x402135b4                txiq_get_mis_pwr
                0x40213658                txiq_cover
                0x40213874                ram_rfcal_txiq
                0x40213ae4                rc_cal
                0x40213ca4                get_target_power_offset
                0x40213dac                get_pwctrl_correct
                0x40213e08                tx_pwctrl_cal
                0x40214198                tx_pwctrl_bg_init
                0x40214210                tx_pwctrl_background
                0x402142e8                read_sar_dout
                0x4021434c                ram_get_fm_sar_dout
                0x402143f0                ram_cal_tos_v60
                0x402145d0                ram_get_bb_atten
                0x40214600                ram_rfcal_txcap
                0x402147c4                ram_rfcal_pwrctrl
                0x402149e0                ram_rxiq_get_mis
                0x40214bb0                ram_rxiq_cover_mg_mp
                0x40214d54                ram_rfcal_rxiq
                0x40214f60                dpd_scale_set
                0x40214fa8                dpd_mem_write
 .irom0.text    0x40215024      0xd82 c:/Espressif/ESP8266_SDK/lib\libphy.a(phy_sleep.o)
                                0xfaa (size before relaxing)
                0x40215024                pm_usec2rtc
                0x40215058                pm_rtc2usec
                0x40215068                pm_set_sleep_cycles
                0x40215090                pm_sleep_opt
                0x402151a8                pm_wakeup_opt
                0x402151e0                get_chip_version
                0x40215220                pm_sleep_opt_bb_off
                0x40215260                pm_sleep_opt_bb_on
                0x402152ac                pm_set_pll_xtal_wait_time
                0x402152f4                pm_prepare_to_sleep
                0x40215318                pm_sdio_nidle
                0x4021538c                chg_lslp_mem_opt_8266
                0x402153bc                pm_goto_sleep
                0x40215508                pm_wait4wakeup
                0x40215544                pm_open_rf
                0x40215588                pm_sleep_set_mac
                0x4021560c                pm_set_wakeup_mac
                0x402156a8                pm_check_mac_idle
                0x40215700                pm_set_sleep_btco
                0x402157a0                pm_set_wakeup_btco
                0x402158b8                pm_set_sleep_mode
                0x402159d4                pm_unmask_bt
                0x40215a3c                pm_wakeup_init
                0x40215c4c                sleep_opt_8266
                0x40215c6c                sleep_opt_bb_on_8266
                0x40215ca4                sleep_reset_analog_rtcreg_8266
 *fill*         0x40215da6        0x2 
 .irom0.text    0x40215da8      0x469 c:/Espressif/ESP8266_SDK/lib\libpp.a(if_hwctrl.o)
                                0x581 (size before relaxing)
                0x40215dc8                ic_get_addr
                0x40215dd4                ic_set_opmode
                0x40215de8                ic_enable_interface
                0x40215e38                ic_interface_enabled
                0x40215e4c                ic_disable_interface
                0x40215e94                ic_is_pure_sta
                0x40215eb0                ic_get_ptk_alg
                0x40215ec0                ic_get_gtk_alg
                0x40215ed0                ic_set_ptk_alg
                0x40215ee0                ic_set_gtk_alg
                0x40215ef0                ic_interface_is_p2p
                0x40215f88                ic_set_vif
                0x40216048                ic_set_sta
                0x40216120                ic_bss_info_update
                0x4021617c                ic_set_key
                0x402161d8                ic_remove_key
                0x402161ec                ic_get_rssi
 *fill*         0x40216211        0x3 
 .irom0.text    0x40216214      0x100 c:/Espressif/ESP8266_SDK/lib\libpp.a(lmac.o)
                                0x118 (size before relaxing)
                0x40216218                lmacInitAc
                0x4021624c                lmacInit
                0x402162f8                lmacSetRetryLimit
 .irom0.text    0x40216314     0x1859 c:/Espressif/ESP8266_SDK/lib\libpp.a(pm.o)
                               0x1d41 (size before relaxing)
                0x4021631c                pm_rtc_clock_cali_proc
                0x40216354                pm_get_ck170_period
                0x40216378                pm_set_sleep_time
                0x402166dc                pm_rf_is_closed
                0x4021670c                pm_set_sleep_type_from_upper
                0x402167fc                pm_get_sleep_type
                0x40216980                uart_tx_flush
                0x40216984                pm_suspend
                0x40216ba4                pm_shutdown
                0x40216c6c                pm_reset_idle_sleep
                0x40216cac                pm_idle_sleep
                0x40216cb8                pm_open
                0x40216d80                pm_onBcnRx
                0x402170e8                StopLightSleepSetFunc
                0x402170f0                LightSleepWakedCbSetFunc
                0x402175ec                pm_enable_gpio_wakeup
                0x40217624                pm_attach
                0x40217718                pm_send_nullfunc
                0x402178a4                pm_is_waked
                0x402178bc                pm_is_open
                0x402178d4                pm_scan_lock
                0x402178fc                pm_try_scan_unlock
                0x40217914                pm_force_scan_unlock
                0x40217990                pm_scan_unlocked
                0x402179a4                pm_allow_tx
                0x402179c0                pm_assoc_parse
                0x402179d8                pm_set_addr
                0x402179f8                pm_sleep_for
                0x40217a28                pm_post
                0x40217b2c                pm_get_idle_wait_time
 *fill*         0x40217b6d        0x3 
 .irom0.text    0x40217b70      0xa91 c:/Espressif/ESP8266_SDK/lib\libpp.a(pm_for_bcn_only_mode.o)
                                0xe21 (size before relaxing)
                0x40217b84                wifi_fpm_set_sleep_type
                0x40217b84                fpm_set_type_from_upper
                0x40217c40                fpm_get_slp_type
                0x40217c40                wifi_fpm_get_sleep_type
                0x40217c48                fpm_rf_is_closed
                0x40217c5c                fpm_is_open
                0x40217c68                fpm_allow_tx
                0x40217c8c                fpm_close
                0x40217c8c                wifi_fpm_close
                0x40217d08                fpm_open
                0x40217d08                wifi_fpm_open
                0x40217d70                fpm_attach
                0x40217f54                fpm_set_wakeup_cb
                0x40217f54                wifi_fpm_set_wakeup_cb
                0x402180c4                fpm_do_wakeup
                0x402180c4                wifi_fpm_do_wakeup
                0x40218588                fpm_do_sleep
                0x40218588                wifi_fpm_do_sleep
 *fill*         0x40218601        0x3 
 .irom0.text    0x40218604     0x15b6 c:/Espressif/ESP8266_SDK/lib\libpp.a(pp.o)
                               0x1996 (size before relaxing)
                0x40218610                PPWdtReset
                0x40218644                pp_soft_wdt_init
                0x40218664                system_soft_wdt_feed
                0x40218664                pp_soft_wdt_feed
                0x40218680                system_soft_wdt_stop
                0x40218680                pp_soft_wdt_stop
                0x402186ac                system_soft_wdt_restart
                0x402186ac                pp_soft_wdt_restart
                0x402186e4                RxNodeNum
                0x402186fc                TxNodeNum
                0x40218720                pp_disable_noise_timer
                0x40218740                pp_enable_noise_timer
                0x40218850                pp_noise_test
                0x40218860                reset_noise_timer
                0x40218898                pp_disable_idle_timer
                0x402188bc                pp_enable_idle_timer
                0x402188e4                pp_try_enable_idle_timer
                0x40218920                ppPeocessRxPktHdr
                0x40218c68                HdlAllBuffedEb
                0x40218cf0                ppTxPkt
                0x40218e58                ppProcessWaitQ
                0x40218e68                ppRegisterTxCallback
                0x40218e90                ppUnregisterTxCallback
                0x40218ec4                ppRecycleRxPkt
                0x40218f24                ppCheckTxIdle
                0x4021919c                pp_tx_idle_timeout
                0x40219358                DefFreqCalTimerCB
                0x402196d8                ppGetTxQFirstAvail_Locked
                0x402197b8                pp_attach
 *fill*         0x40219bba        0x2 
 .irom0.text    0x40219bbc      0x296 c:/Espressif/ESP8266_SDK/lib\libpp.a(rate_control.o)
                                0x2a2 (size before relaxing)
                0x40219e08                RC_SetBasicRate
 *fill*         0x40219e52        0x2 
 .irom0.text    0x40219e54      0x5e9 c:/Espressif/ESP8266_SDK/lib\libpp.a(trc.o)
                                0x64d (size before relaxing)
                0x40219e54                phytype2mode
                0x40219e70                rc_set_rate_limit_id
                0x40219f8c                rcUpdatePhyMode
                0x4021a158                rcAttach
                0x4021a1a4                rcGetTrc
                0x4021a1ac                trc_onDisconnect
                0x4021a1b0                trc_onScanStart
                0x4021a1c4                trc_onScanDone
                0x4021a1e0                rc_enable_trc
                0x4021a2b8                rc_get_mask
                0x4021a2cc                rc_disable_trc
                0x4021a320                rc_disable_trc_by_interface
                0x4021a33c                rc_get_sta_trc
                0x4021a380                rc_get_trc
                0x4021a3f0                rc_get_trc_by_index
                0x4021a410                rc_only_sta_trc
 *fill*         0x4021a43d        0x3 
 .irom0.text    0x4021a440      0xaf7 c:/Espressif/ESP8266_SDK/lib\libpp.a(wdev.o)
                                0xc53 (size before relaxing)
                0x4021a44c                wDev_Option_Init
                0x4021a540                wDev_Enable_Beacon_Tsf
                0x4021a55c                wDev_Disable_Beacon_Tsf
                0x4021a578                wDev_Set_Beacon_Int
                0x4021a580                wDev_Reset_TBTT
                0x4021a5b0                wDev_Get_Next_TBTT
                0x4021a82c                wDev_Initialize
                0x4021a89c                wDevForceAck6M
                0x4021a8b8                wDev_SetMacAddress
                0x4021a954                wDev_SetRxPolicy
                0x4021a9a8                wDev_SetBssid
                0x4021aa80                wDev_ClearBssid
                0x4021aab8                wDev_Insert_KeyEntry
                0x4021abac                wDev_remove_KeyEntry
                0x4021abe8                wDev_remove_KeyEntry_all_cnx
                0x4021ac38                wDev_Crypto_Conf
                0x4021acd4                wDev_Crypto_Disable
                0x4021ad0c                wDevEnableRx
                0x4021ad34                wdev_go_sniffer
                0x4021ae10                wdev_set_sniffer_addr
                0x4021ae68                wdev_exit_sniffer
 *fill*         0x4021af37        0x1 
 .irom0.text    0x4021af38      0x3e6 c:/Espressif/ESP8266_SDK/lib\libpp.a(esf_buf.o)
                                0x4b2 (size before relaxing)
                0x4021af40                esf_buf_alloc
                0x4021b124                esf_buf_recycle
                0x4021b264                esf_buf_setup
 *fill*         0x4021b31e        0x2 
 .irom0.text    0x4021b320      0x475 c:/Espressif/ESP8266_SDK/lib\libnet80211.a(ieee80211.o)
                                0x545 (size before relaxing)
                0x4021b3a4                ieee80211_rate_ref_init
                0x4021b3b8                ieee80211_freedom_inside_cb
                0x4021b3e8                ieee80211_freedom_init
                0x4021b40c                ieee80211_user_ie_init
                0x4021b428                ieee80211_ifattach
                0x4021b48c                ieee80211_mhz2ieee
                0x4021b4e8                ieee80211_chan2ieee
                0x4021b504                ieee80211_ieee2mhz
                0x4021b544                ieee80211_find_channel
                0x4021b570                ieee80211_find_channel_byieee
                0x4021b5c0                wifi_mode_set
 *fill*         0x4021b795        0x3 
 .irom0.text    0x4021b798       0xcf c:/Espressif/ESP8266_SDK/lib\libnet80211.a(ieee80211_crypto.o)
                                 0xd7 (size before relaxing)
                0x4021b798                ieee80211_crypto_attach
                0x4021b79c                ieee80211_crypto_available
                0x4021b7a0                ieee80211_crypto_setkey
                0x4021b7a4                ieee80211_crypto_encap
                0x4021b7fc                ieee80211_crypto_decap
 *fill*         0x4021b867        0x1 
 .irom0.text    0x4021b868       0x4c c:/Espressif/ESP8266_SDK/lib\libnet80211.a(ieee80211_ets.o)
                                 0x50 (size before relaxing)
                0x4021b86c                ieee80211_getmgtframe
 .irom0.text    0x4021b8b4     0x1a08 c:/Espressif/ESP8266_SDK/lib\libnet80211.a(ieee80211_hostap.o)
                               0x1f77 (size before relaxing)
                0x4021bed8                ieee80211_hostap_attach
                0x4021bfd4                hostap_handle_timer
                0x4021c06c                hostap_input
                0x4021cfb8                wifi_softap_start
                0x4021d124                wifi_softap_stop
 *fill*         0x4021d2bc        0x0 
 .irom0.text    0x4021d2bc      0xa82 c:/Espressif/ESP8266_SDK/lib\libnet80211.a(ieee80211_ht.o)
                                0xb4e (size before relaxing)
                0x4021d2cc                ieee80211_ht_attach
                0x4021d320                ieee80211_ht_node_init
                0x4021d360                ieee80211_ht_node_cleanup
                0x4021d398                ieee80211_parse_htcap
                0x4021d47c                ieee80211_ht_updateparams
                0x4021d590                ieee80211_setup_htrates
                0x4021d65c                ieee80211_setup_basic_htrates
                0x4021d9a8                ieee80211_add_htcap
                0x4021d9c4                ieee80211_add_htcap_vendor
                0x4021dae8                ieee80211_add_htinfo
                0x4021db04                ieee80211_add_htinfo_vendor
 *fill*         0x4021dd3e        0x2 
 .irom0.text    0x4021dd40      0xa8c c:/Espressif/ESP8266_SDK/lib\libnet80211.a(ieee80211_input.o)
                                0xb1c (size before relaxing)
                0x4021dd40                ieee80211_deliver_data
                0x4021dd94                ieee80211_decap
                0x4021de98                ieee80211_setup_rates
                0x4021df08                ieee80211_alloc_challenge
                0x4021df44                ieee80211_parse_beacon
                0x4021e518                ieee80211_parse_wpa
                0x4021e62c                ieee80211_parse_rsn
                0x4021e72c                ieee80211_parse_action
                0x4021e7c8                ieee80211_setup_rateset
 .irom0.text    0x4021e7cc      0x2a6 c:/Espressif/ESP8266_SDK/lib\libnet80211.a(ieee80211_mesh_quick.o)
                                0x302 (size before relaxing)
                0x4021e7d8                ieee80211_mesh_quick_init
                0x4021e848                ieee80211_mesh_quick_deinit
                0x4021e878                ieee80211_mesh_quick_set
                0x4021e974                ieee80211_mesh_quick_get
                0x4021ea40                ieee80211_mesh_quick_ie_add
 *fill*         0x4021ea72        0x2 
 .irom0.text    0x4021ea74     0x1c56 c:/Espressif/ESP8266_SDK/lib\libnet80211.a(ieee80211_output.o)
                               0x1ff2 (size before relaxing)
                0x4021ea78                ieee80211_output_pbuf
                0x4021ecec                ieee80211_send_setup
                0x4021ee20                ieee80211_mgmt_output
                0x4021ef04                ieee80211_tx_mgt_cb
                0x4021ef08                ieee80211_send_nulldata
                0x4021f378                ieee80211_add_rates
                0x4021f3c8                ieee80211_add_xrates
                0x4021f498                ieee80211_send_probereq
                0x4021f6ac                ieee80211_getcapinfo
                0x4021f708                ieee80211_send_mgmt
                0x4021fca8                ieee80211_alloc_proberesp
                0x4021fe80                ieee80211_send_proberesp
                0x4021ffcc                ieee80211_alloc_deauth
                0x4022000c                ieee80211_send_deauth
                0x40220148                ieee80211_freedom_output
                0x40220534                ieee80211_beacon_alloc
 *fill*         0x402206ca        0x2 
 .irom0.text    0x402206cc       0xe0 c:/Espressif/ESP8266_SDK/lib\libnet80211.a(ieee80211_phy.o)
                                0x108 (size before relaxing)
                0x402206cc                ieee80211_phy_init
                0x40220700                ieee80211_phy_type_get
                0x4022071c                ieee80211_setup_ratetable
 .irom0.text    0x402207ac      0x1b6 c:/Espressif/ESP8266_SDK/lib\libnet80211.a(ieee80211_power.o)
                                0x1f2 (size before relaxing)
                0x402207ac                ieee80211_psq_init
                0x402207cc                ieee80211_psq_cleanup
                0x402207d4                ieee80211_set_tim
                0x40220814                ieee80211_pwrsave
                0x4022087c                pwrsave_flushq
                0x4022092c                ieee80211_node_pwrsave
 *fill*         0x40220962        0x2 
 .irom0.text    0x40220964      0x101 c:/Espressif/ESP8266_SDK/lib\libnet80211.a(ieee80211_proto.o)
                                0x129 (size before relaxing)
                0x40220968                ieee80211_proto_attach
                0x40220990                ieee80211_set_shortslottime
                0x402209ac                ieee80211_iserp_rateset
                0x402209e0                ieee80211_wme_initparams
                0x402209e4                ieee80211_wme_updateparams
                0x402209ec                ieee80211_mlme_connect_bss
 *fill*         0x40220a65        0x3 
 .irom0.text    0x40220a68       0xaa c:/Espressif/ESP8266_SDK/lib\libnet80211.a(ieee80211_rfid.o)
                                 0xd6 (size before relaxing)
                0x40220a68                ieee80211_rfid_locp_recv_open
                0x40220aa0                ieee80211_rfid_locp_recv_close
                0x40220ab8                ieee80211_rfid_locp_recv_reset
                0x40220ad8                ieee80211_rfid_locp_recv
                0x40220af4                register_ieee80211_rfid_locp_recv_cb
                0x40220b08                unregister_ieee80211_rfid_locp_recv_cb
 *fill*         0x40220b12        0x2 
 .irom0.text    0x40220b14      0xf50 c:/Espressif/ESP8266_SDK/lib\libnet80211.a(ieee80211_scan.o)
                               0x1284 (size before relaxing)
                0x40220b20                ieee80211_scan_attach
                0x40220bb4                scan_start
                0x40220d78                scan_pm_channel_op_cb
                0x40220f18                scan_cancel
                0x40221074                scan_add_bssid
                0x40221098                scan_remove_bssid
                0x402210a4                scan_hidden_ssid
                0x402210ac                scan_add_probe_ssid
                0x40221100                scan_remove_probe_ssid
                0x4022123c                scan_clear_channles
                0x402212b0                scan_set_desChan
                0x402212bc                scan_get_type
                0x402212c4                cannel_scan_connect_state
                0x402212dc                scan_connect_state
                0x40221324                scan_check_hidden
                0x40221350                scan_profile_check
                0x402216f8                scan_parse_beacon
 .irom0.text    0x40221a64     0x104e c:/Espressif/ESP8266_SDK/lib\libnet80211.a(ieee80211_sta.o)
                               0x12dd (size before relaxing)
                0x40221ac0                sta_status_set
                0x40221b2c                ieee80211_sta_new_state
                0x40221ea4                sta_input
                0x402223f0                ieee80211_parse_wmeparams
                0x40222a08                wifi_station_start
                0x40222a78                wifi_station_stop
 *fill*         0x40222ab2        0x2 
 .irom0.text    0x40222ab4      0x29e c:/Espressif/ESP8266_SDK/lib\libnet80211.a(wl_chm.o)
                                0x31e (size before relaxing)
                0x40222ac0                chm_init
                0x40222b24                chm_acquire_lock
                0x40222b68                chm_release_lock
                0x40222b7c                chm_start_op
                0x40222c20                chm_end_op
                0x40222c68                chm_cancel_op
                0x40222c9c                chm_return_home_channel
                0x40222ccc                chm_set_current_channel
                0x40222cfc                chm_freq2index
                0x40222d24                chm_check_same_channel
 *fill*         0x40222d52        0x2 
 .irom0.text    0x40222d54     0x1791 c:/Espressif/ESP8266_SDK/lib\libnet80211.a(wl_cnx.o)
                               0x1cfd (size before relaxing)
                0x40222d60                cnx_attach
                0x40222da0                cnx_sta_connect_led_timer_cb
                0x40222df4                cnx_sta_connect_cmd
                0x40222eb0                cnx_sta_scan_cmd
                0x4022310c                cnx_connect_timeout
                0x40223188                cnx_auth_timeout
                0x402231ac                cnx_assoc_timeout
                0x402231d0                cnx_handshake_timeout
                0x40223210                cnx_start_handoff_cb
                0x40223670                cnx_bss_alloc
                0x40223710                cnx_rc_search
                0x40223790                cnx_add_rc
                0x402237fc                cnx_remove_all_rc
                0x40223848                cnx_remove_rc
                0x40223918                cnx_rc_update_rssi
                0x402239a0                cnx_rc_update_state_metric
                0x40223a0c                cnx_rc_update_age
                0x40223a30                cnx_update_bss
                0x40223a64                cnx_update_bss_more
                0x40223c40                cnx_sta_leave
                0x40223ed4                cnx_sta_associated
                0x40223fdc                cnx_node_alloc
                0x40224050                cnx_node_remove
                0x402240dc                cnx_node_search
                0x40224158                cnx_node_leave
                0x40224258                wifi_softap_staconnected_event_policy
                0x40224280                wifi_softap_toomany_deny
                0x402242b8                cnx_node_join
 *fill*         0x402244e5        0x3 
 .irom0.text    0x402244e8      0x16f c:/Espressif/ESP8266_SDK/lib\libnet80211.a(ieee80211_action.o)
                                0x193 (size before relaxing)
                0x402244f8                ieee80211_send_action_register
                0x4022452c                ieee80211_send_action_unregister
                0x40224540                ieee80211_send_action
                0x402245ac                ieee80211_recv_action_register
                0x402245e0                ieee80211_recv_action_unregister
                0x402245f4                ieee80211_recv_action
 *fill*         0x40224657        0x1 
 .irom0.text    0x40224658      0x479 c:/Espressif/ESP8266_SDK/lib\libnet80211.a(ieee80211_action_vendor.o)
                                0x505 (size before relaxing)
                0x4022465c                get_iav_key
                0x4022467c                register_ieee80211_action_vendor_get_key_cb
                0x40224690                unregister_ieee80211_action_vendor_get_key_cb
                0x402246a4                ieee80211_add_action_vendor_spec_esp
                0x402246ec                ieee80211_alloc_action_vendor_spec
                0x402247d8                ieee80211_send_action_vendor_spec
                0x4022496c                ieee80211_recv_action_vendor_spec
                0x40224a74                ieee80211_action_vendor_spec_attach
                0x40224ab4                register_ieee80211_action_vendor_spec_cb
                0x40224ac8                unregister_ieee80211_action_vendor_spec_cb
 *fill*         0x40224ad1        0x3 
 .irom0.text    0x40224ad4      0x15d c:/Espressif/ESP8266_SDK/lib\libnet80211.a(ieee80211_crypto_ccmp.o)
                                0x165 (size before relaxing)
 *fill*         0x40224c31        0x3 
 .irom0.text    0x40224c34      0x23d c:/Espressif/ESP8266_SDK/lib\libnet80211.a(ieee80211_ie_vendor.o)
                                0x25d (size before relaxing)
                0x40224c38                ieee80211_add_ie_vendor_esp_head
                0x40224c70                ieee80211_add_ie_vendor_esp_mesh_assoc
                0x40224cf4                ieee80211_add_ie_vendor_esp_mesh_group
                0x40224d24                ieee80211_add_ie_vendor_esp_simple_pair
                0x40224d74                ieee80211_add_ie_vendor_esp_freq_annon
                0x40224dac                ieee80211_add_ie_vendor_esp_now
                0x40224de4                ieee80211_add_ie_vendor_esp_ssid
                0x40224e24                ieee80211_add_ie_vendor_esp_manufacturer
 *fill*         0x40224e71        0x3 
 .irom0.text    0x40224e74     0x13b2 c:/Espressif/ESP8266_SDK/lib\liblwip.a(dhcp.o)
                               0x159e (size before relaxing)
                0x402250f0                dhcp_coarse_tmr
                0x4022513c                dhcp_fine_tmr
                0x40225394                dhcp_set_struct
                0x402253bc                dhcp_cleanup
                0x402253e8                dhcp_start
                0x402254a0                dhcp_inform
                0x4022554c                dhcp_network_changed
                0x40225594                dhcp_arp_reply
                0x40225890                dhcp_renew
                0x40225b04                dhcp_release
                0x40225bc4                dhcp_stop
 *fill*         0x40226226        0x2 
 .irom0.text    0x40226228      0xcd7 c:/Espressif/ESP8266_SDK/lib\liblwip.a(dhcpserver.o)
                                0xebf (size before relaxing)
                0x40226228                node_insert_to_list
                0x40226260                node_remove_from_list
                0x40226b88                dhcps_start
                0x40226bf0                dhcps_stop
                0x40226c5c                wifi_softap_set_dhcps_lease
                0x40226d48                wifi_softap_get_dhcps_lease
                0x40226de0                dhcps_coarse_tmr
                0x40226e58                wifi_softap_set_dhcps_offer_option
                0x40226e9c                wifi_softap_set_dhcps_lease_time
                0x40226ecc                wifi_softap_reset_dhcps_lease_time
                0x40226ef8                wifi_softap_get_dhcps_lease_time
 *fill*         0x40226eff        0x1 
 .irom0.text    0x40226f00      0x5c3 c:/Espressif/ESP8266_SDK/lib\liblwip.a(dns.o)
                                0x677 (size before relaxing)
                0x40226f0c                dns_init
                0x40226f4c                dns_setserver
                0x40226f6c                dns_getserver
                0x40226f80                dns_tmr
                0x4022746c                dns_gethostbyname
 *fill*         0x402274c3        0x1 
 .irom0.text    0x402274c4      0xfb8 c:/Espressif/ESP8266_SDK/lib\liblwip.a(espconn_tcp.o)
                               0x12bc (size before relaxing)
                0x402275ac                espconn_kill_oldest_pcb
                0x40227630                espconn_kill_pcb
                0x402276ac                espconn_find_current_pcb
                0x402279c0                espconn_tcp_sent
                0x40227a78                espconn_tcp_disconnect
                0x40227b0c                espconn_recv_hold
                0x40227b50                espconn_recv_unhold
                0x40227c5c                espconn_tcp_write
                0x40227e8c                espconn_tcp_client
                0x40228318                espconn_tcp_server
                0x402283d4                espconn_tcp_delete
                0x40228460                espconn_init
 .irom0.text    0x4022847c      0x8cf c:/Espressif/ESP8266_SDK/lib\liblwip.a(etharp.o)
                                0x9b7 (size before relaxing)
                0x402284b0                etharp_tmr
                0x402286dc                etharp_cleanup_netif
                0x40228718                etharp_find_addr
                0x4022896c                etharp_output
                0x40228a80                etharp_query
                0x40228cb0                etharp_request
                0x40228cd4                ethernet_input
 *fill*         0x40228d4b        0x1 
 .irom0.text    0x40228d4c       0x40 c:/Espressif/ESP8266_SDK/lib\liblwip.a(init.o)
                                 0x60 (size before relaxing)
                0x40228d50                lwip_init
 .irom0.text    0x40228d8c      0x37a c:/Espressif/ESP8266_SDK/lib\liblwip.a(ip_addr.o)
                                0x3a2 (size before relaxing)
                0x40228d8c                ip4_addr_isbroadcast
                0x40228db8                ip4_addr_netmask_valid
                0x40228df8                ipaddr_addr
                0x40228e14                ipaddr_aton
                0x40229030                ipaddr_ntoa
                0x40229044                ipaddr_ntoa_r
 *fill*         0x40229106        0x2 
 .irom0.text    0x40229108      0x581 c:/Espressif/ESP8266_SDK/lib\liblwip.a(ip.o)
                                0x62d (size before relaxing)
                0x40229108                ip_route
                0x40229184                ip_router
                0x40229200                ip_input
                0x40229458                ip_output_if
                0x40229474                ip_output_if_opt
                0x40229650                ip_output
 *fill*         0x40229689        0x3 
 .irom0.text    0x4022968c      0x27d c:/Espressif/ESP8266_SDK/lib\liblwip.a(netif.o)
                                0x2bd (size before relaxing)
                0x4022968c                netif_init
                0x40229694                netif_add
                0x402296fc                netif_set_addr
                0x40229724                netif_remove
                0x40229780                netif_find
                0x402297bc                netif_set_ipaddr
                0x40229824                netif_set_gw
                0x40229834                netif_set_netmask
                0x40229844                netif_set_default
                0x4022984c                netif_set_up
                0x40229888                netif_set_down
                0x402298ac                netif_set_link_up
                0x402298f8                netif_set_link_down
 *fill*         0x40229909        0x3 
 .irom0.text    0x4022990c      0x68e c:/Espressif/ESP8266_SDK/lib\liblwip.a(pbuf.o)
                                0x6f6 (size before relaxing)
                0x4022990c                pbuf_free_ooseq_new
                0x40229964                pbuf_alloc
                0x40229ac4                pbuf_realloc
                0x40229b0c                pbuf_header
                0x40229b78                pbuf_free
                0x40229c04                pbuf_clen
                0x40229c1c                pbuf_ref
                0x40229c28                pbuf_cat
                0x40229c54                pbuf_chain
                0x40229c70                pbuf_dechain
                0x40229cac                pbuf_copy
                0x40229d50                pbuf_copy_partial
                0x40229dd0                pbuf_take
                0x40229e30                pbuf_coalesce
                0x40229e64                pbuf_get_at
                0x40229e8c                pbuf_memcmp
                0x40229ef8                pbuf_memfind
                0x40229f50                pbuf_strstr
 *fill*         0x40229f9a        0x2 
 .irom0.text    0x40229f9c      0x1f0 c:/Espressif/ESP8266_SDK/lib\liblwip.a(raw.o)
                                0x248 (size before relaxing)
                0x40229fa4                raw_input
                0x4022a02c                raw_bind
                0x4022a03c                raw_connect
                0x4022a04c                raw_recv
                0x4022a054                raw_sendto
                0x4022a0f0                raw_send
                0x4022a108                raw_remove
                0x4022a144                raw_new
 .irom0.text    0x4022a18c     0x157c c:/Espressif/ESP8266_SDK/lib\liblwip.a(tcp_in.o)
                               0x17bc (size before relaxing)
                0x4022a194                tcp_input
 .irom0.text    0x4022b708      0xae7 c:/Espressif/ESP8266_SDK/lib\liblwip.a(tcp.o)
                                0xc1f (size before relaxing)
                0x4022b70c                tcp_tmr
                0x4022b730                tcp_close
                0x4022b754                tcp_shutdown
                0x4022b7b4                tcp_abandon
                0x4022b85c                tcp_abort
                0x4022b874                tcp_bind
                0x4022b8f0                tcp_listen_with_backlog
                0x4022b9b0                tcp_update_rcv_ann_wnd
                0x4022b9f4                tcp_recved
                0x4022ba50                tcp_connect
                0x4022bb5c                tcp_slowtmr
                0x4022be04                tcp_fasttmr
                0x4022be80                tcp_segs_free
                0x4022be9c                tcp_seg_free
                0x4022bec8                tcp_setprio
                0x4022bed0                tcp_seg_copy
                0x4022bf14                tcp_recv_null
                0x4022bfcc                tcp_alloc
                0x4022c0b0                tcp_new
                0x4022c0c4                tcp_arg
                0x4022c0c8                tcp_recv
                0x4022c0d0                tcp_sent
                0x4022c0d8                tcp_err
                0x4022c0e0                tcp_accept
                0x4022c0e4                tcp_poll
                0x4022c0ec                tcp_pcb_purge
                0x4022c140                tcp_pcb_remove
                0x4022c1a8                tcp_next_iss
                0x4022c1bc                tcp_eff_send_mss
 *fill*         0x4022c1ef        0x1 
 .irom0.text    0x4022c1f0      0xf14 c:/Espressif/ESP8266_SDK/lib\liblwip.a(tcp_out.o)
                               0x1018 (size before relaxing)
                0x4022c2e8                tcp_send_fin
                0x4022c4d0                tcp_write
                0x4022c80c                tcp_enqueue_flags
                0x4022c8f0                tcp_send_empty_ack
                0x4022c984                tcp_output
                0x4022cc88                tcp_rst
                0x4022cdc8                tcp_rexmit_rto
                0x4022ce3c                tcp_rexmit
                0x4022cee8                tcp_rexmit_fast
                0x4022cf40                tcp_keepalive
                0x4022cfc0                tcp_zero_window_probe
 .irom0.text    0x4022d104      0x2c7 c:/Espressif/ESP8266_SDK/lib\liblwip.a(timers.o)
                                0x357 (size before relaxing)
                0x4022d144                tcp_timer_needed
                0x4022d1cc                sys_timeouts_init
                0x4022d234                sys_timeout
                0x4022d2b0                sys_untimeout
                0x4022d300                sys_check_timeouts
                0x4022d3bc                sys_restart_timeouts
 *fill*         0x4022d3cb        0x1 
 .irom0.text    0x4022d3cc      0x56a c:/Espressif/ESP8266_SDK/lib\liblwip.a(udp.o)
                                0x622 (size before relaxing)
                0x4022d3d0                udp_input
                0x4022d620                udp_send
                0x4022d634                udp_sendto
                0x4022d680                udp_sendto_if
                0x4022d7c8                udp_bind
                0x4022d844                udp_connect
                0x4022d8a0                udp_disconnect
                0x4022d8b8                udp_recv
                0x4022d8c4                udp_remove
                0x4022d900                udp_new
 *fill*         0x4022d936        0x2 
 .irom0.text    0x4022d938      0xa6a c:/Espressif/ESP8266_SDK/lib\liblwip.a(espconn.o)
                                0xb6e (size before relaxing)
                0x4022d938                espconn_copy_partial
                0x4022d9c8                espconn_list_creat
                0x4022d9e8                espconn_list_delete
                0x4022da10                espconn_pbuf_create
                0x4022da2c                espconn_pbuf_delete
                0x4022da50                espconn_find_connection
                0x4022db0c                espconn_connect
                0x4022dbf0                espconn_create
                0x4022dc38                espconn_send
                0x4022dc38                espconn_sent
                0x4022dcfc                espconn_sendto
                0x4022dd44                espconn_tcp_get_wnd
                0x4022dd68                espconn_tcp_set_wnd
                0x4022dd84                espconn_tcp_get_mss
                0x4022dd8c                espconn_tcp_get_max_con
                0x4022dd9c                espconn_tcp_set_max_con
                0x4022ddb4                espconn_tcp_get_max_retran
                0x4022ddc4                espconn_tcp_set_max_retran
                0x4022dddc                espconn_tcp_get_max_syn
                0x4022ddec                espconn_tcp_set_max_syn
                0x4022de04                espconn_tcp_get_max_con_allow
                0x4022de2c                espconn_tcp_set_max_con_allow
                0x4022de5c                espconn_tcp_set_buf_count
                0x4022dea0                espconn_regist_sentcb
                0x4022deac                espconn_regist_write_finish
                0x4022dec4                espconn_regist_connectcb
                0x4022ded4                espconn_regist_recvcb
                0x4022dee0                espconn_regist_reconcb
                0x4022def0                espconn_regist_disconcb
                0x4022df04                espconn_get_connection_info
                0x4022dfcc                espconn_accept
                0x4022e010                espconn_regist_time
                0x4022e050                espconn_disconnect
                0x4022e090                espconn_abort
                0x4022e0d0                espconn_get_packet_info
                0x4022e160                espconn_set_opt
                0x4022e1b8                espconn_clear_opt
                0x4022e218                espconn_set_keepalive
                0x4022e284                espconn_get_keepalive
                0x4022e2f4                espconn_delete
                0x4022e33c                espconn_port
                0x4022e374                espconn_gethostbyname
                0x4022e390                espconn_dns_setserver
 *fill*         0x4022e3a2        0x2 
 .irom0.text    0x4022e3a4      0x4df c:/Espressif/ESP8266_SDK/lib\liblwip.a(espconn_udp.o)
                                0x637 (size before relaxing)
                0x4022e3f0                espconn_udp_sent
                0x4022e554                espconn_udp_sendto
                0x4022e7a8                espconn_udp_disconnect
                0x4022e7e4                espconn_udp_server
                0x4022e84c                espconn_igmp_leave
                0x4022e868                espconn_igmp_join
 *fill*         0x4022e883        0x1 
 .irom0.text    0x4022e884      0x26e c:/Espressif/ESP8266_SDK/lib\liblwip.a(icmp.o)
                                0x312 (size before relaxing)
                0x4022e888                icmp_input
                0x4022ea34                icmp_dest_unreach
 *fill*         0x4022eaf2        0x2 
 .irom0.text    0x4022eaf4      0x5e6 c:/Espressif/ESP8266_SDK/lib\liblwip.a(igmp.o)
                                0x67a (size before relaxing)
                0x4022eb00                igmp_init
                0x4022eb10                igmp_start
                0x4022eb54                igmp_stop
                0x4022ebb8                igmp_report_groups
                0x4022ebe8                igmp_lookfor_group
                0x4022ecb0                igmp_input
                0x4022edf8                igmp_joingroup
                0x4022eea0                igmp_leavegroup
                0x4022ef44                igmp_tmr
 *fill*         0x4022f0da        0x2 
 .irom0.text    0x4022f0dc      0x2aa c:/Espressif/ESP8266_SDK/lib\libwpa.a(ap_config.o)
                                0x2ee (size before relaxing)
                0x4022f0e0                hostapd_config_defaults_bss
                0x4022f12c                hostapd_config_defaults
                0x4022f1b0                hostapd_mac_comp
                0x4022f1c4                hostapd_mac_comp_empty
                0x4022f230                hostapd_setup_wpa_psk
                0x4022f260                hostapd_wep_key_cmp
                0x4022f2b0                hostapd_maclist_found
                0x4022f318                hostapd_rate_found
                0x4022f334                hostapd_get_psk
 *fill*         0x4022f386        0x2 
 .irom0.text    0x4022f388      0x2b6 c:/Espressif/ESP8266_SDK/lib\libwpa.a(common.o)
                                0x302 (size before relaxing)
                0x4022f388                inc_byte_array
                0x4022f3dc                hex2byte
                0x4022f410                hexstr2bin
                0x4022f45c                wpa_get_ntp_timestamp
                0x4022f4f4                wpa_config_parse_string
                0x4022f5f8                dup_binstr
 *fill*         0x4022f63e        0x2 
 .irom0.text    0x4022f640       0xcc c:/Espressif/ESP8266_SDK/lib\libwpa.a(os_xtensa.o)
                                 0xdc (size before relaxing)
                0x4022f644                ets_strdup
                0x4022f688                os_get_time
                0x4022f68c                r_rand
                0x4022f6a0                os_random
                0x4022f6b0                os_get_random
 .irom0.text    0x4022f70c     0x1c86 c:/Espressif/ESP8266_SDK/lib\libwpa.a(wpa_auth.o)
                               0x1f66 (size before relaxing)
                0x4022f858                wpa_auth_for_each_sta
                0x4022f9d8                wpa_init
                0x4022fa68                wpa_auth_sta_init
                0x4022fab0                wpa_auth_sta_associated
                0x4022fb1c                wpa_auth_sta_no_wpa
                0x4022fb78                wpa_auth_sta_deinit
                0x4022fc48                wpa_receive
                0x402300ac                __wpa_send_eapol
                0x402305d0                wpa_remove_ptk
                0x4023061c                wpa_auth_sm_event
 *fill*         0x40231392        0x2 
 .irom0.text    0x40231394      0x582 c:/Espressif/ESP8266_SDK/lib\libwpa.a(wpa_auth_ie.o)
                                0x5f6 (size before relaxing)
                0x40231458                wpa_write_rsn_ie
                0x40231564                wpa_auth_gen_wpa_ie
                0x402315f4                wpa_add_kde
                0x40231660                wpa_validate_wpa_ie
                0x4023186c                wpa_parse_kde_ies
                0x40231908                wpa_auth_uses_mfp
 *fill*         0x40231916        0x2 
 .irom0.text    0x40231918     0x14d0 c:/Espressif/ESP8266_SDK/lib\libwpa.a(wpa.o)
                               0x1708 (size before relaxing)
                0x402328a4                wpa_sm_rx_eapol
                0x40232a1c                wpa_register
                0x40232a48                wpa_set_profile
                0x40232a60                wpa_set_pmk
                0x40232a8c                wpa_set_bss
                0x40232c90                pp_michael_mic_failure
                0x40232d34                eapol_txcb
                0x40232dc0                wpa_sm_set_state
 .irom0.text    0x40232de8      0x76a c:/Espressif/ESP8266_SDK/lib\libwpa.a(wpa_common.o)
                                0x7fa (size before relaxing)
                0x40232f30                wpa_parse_wpa_ie_rsn
                0x402330c4                wpa_parse_wpa_ie_wpa
                0x40233254                wpa_eapol_key_mic
                0x40233294                wpa_compare_rsn_ie
                0x402332bc                wpa_pmk_to_ptk
                0x402333ac                rsn_pmkid
                0x40233408                wpa_cipher_key_len
                0x4023342c                wpa_cipher_to_alg
                0x40233454                wpa_cipher_to_suite
                0x402334a8                rsn_cipher_put_suites
                0x40233508                wpa_cipher_put_suites
 *fill*         0x40233552        0x2 
 .irom0.text    0x40233554       0xa8 c:/Espressif/ESP8266_SDK/lib\libwpa.a(wpa_debug.o)
                                 0xac (size before relaxing)
                0x402335cc                wpa_snprintf_hex_uppercase
                0x402335e0                wpa_snprintf_hex
                0x402335f4                eloop_cancel_timeout
                0x402335f8                eloop_register_timeout
 .irom0.text    0x402335fc      0x325 c:/Espressif/ESP8266_SDK/lib\libwpa.a(wpa_ie.o)
                                0x341 (size before relaxing)
                0x402335fc                wpa_parse_wpa_ie
                0x402336f0                wpa_supplicant_parse_ies
                0x402338f0                wpa_gen_wpa_ie
 *fill*         0x40233921        0x3 
 .irom0.text    0x40233924      0x418 c:/Espressif/ESP8266_SDK/lib\libwpa.a(wpa_main.o)
                                0x52c (size before relaxing)
                0x40233928                ppInstallKey
                0x40233ab8                wpa_config_profile
                0x40233aec                wpa_config_bss
                0x40233b18                wpa_config_assoc_ie
                0x40233b2c                dhcp_bind_check
                0x40233b60                eagle_auth_done
                0x40233cdc                wpa_neg_complete
                0x40233d04                wpa_attach
 .irom0.text    0x40233d3c       0xd6 c:/Espressif/ESP8266_SDK/lib\libwpa.a(wpas_glue.o)
                                 0xe2 (size before relaxing)
                0x40233dac                wpa_sm_alloc_eapol
                0x40233dec                wpa_sm_deauthenticate
                0x40233e08                wpa_sm_mlme_setprotection
                0x40233e0c                wpa_sm_get_beacon_ie
                0x40233e10                wpa_sm_disassociate
 *fill*         0x40233e12        0x2 
 .irom0.text    0x40233e14       0xdf c:/Espressif/ESP8266_SDK/lib\libcrypto.a(aes-wrap.o)
                                0x103 (size before relaxing)
                0x40233e14                aes_wrap
 *fill*         0x40233ef3        0x1 
 .irom0.text    0x40233ef4      0x4b7 c:/Espressif/ESP8266_SDK/lib\libcrypto.a(aes-internal-enc.o)
                                0x4df (size before relaxing)
                0x40233ef8                rijndaelEncrypt
                0x40234314                aes_encrypt_init
                0x40234368                aes_encrypt
                0x40234380                aes_encrypt_deinit
 *fill*         0x402343ab        0x1 
 .irom0.text    0x402343ac      0x304 c:/Espressif/ESP8266_SDK/lib\libcrypto.a(aes-internal.o)
                                0x31c (size before relaxing)
                0x402343b0                rijndaelKeySetupEnc
 .irom0.text    0x402346b0      0x135 c:/tools/sming/Sming/compiler/lib/\libmicrogcc.a(_divsf3.o)
                0x4023472c                __divsf3
 *fill*         0x402347e5        0x3 
 .irom0.text    0x402347e8      0x187 c:/Espressif/ESP8266_SDK/lib\libnet80211.a(ieee80211_crypto_tkip.o)
                                0x197 (size before relaxing)
 *fill*         0x4023496f        0x1 
 .irom0.text    0x40234970       0x78 c:/Espressif/ESP8266_SDK/lib\libnet80211.a(ieee80211_crypto_wep.o)
                                 0x7c (size before relaxing)
 *fill*         0x402349e8        0x8 
 .irom.text     0x402349f0      0x490 c:/Espressif/ESP8266_SDK/lib\libmain.a(app_main.o)
 *fill*         0x40234e80        0x0 
 .irom.text     0x40234e80       0x5b c:/Espressif/ESP8266_SDK/lib\libmain.a(ets_timer.o)
 *fill*         0x40234edb        0x0 
 *fill*         0x40234edb        0x5 
 .irom.text     0x40234ee0       0x11 c:/Espressif/ESP8266_SDK/lib\libmain.a(mem_manager.o)
 *fill*         0x40234ef1        0x0 
 *fill*         0x40234ef1        0xf 
 .irom.text     0x40234f00      0x2d5 c:/Espressif/ESP8266_SDK/lib\libmain.a(user_interface.o)
                0x40234f20                default_ssid
 *fill*         0x402351d5        0x0 
 *fill*         0x402351d5        0xb 
 .irom.text     0x402351e0       0x63 c:/Espressif/ESP8266_SDK/lib\libmain.a(eagle_lwip_if.o)
 *fill*         0x40235243        0x1 
 .irom0.text    0x40235244       0x4f c:/tools/sming/Sming/compiler/lib/\libmicroc.a(__fpclassify.o)
                0x40235244                __fpclassify
                0x40235284                __fpclassifyd
 *fill*         0x40235293        0x0 
 *fill*         0x40235293        0x0 
 *fill*         0x40235293        0x0 
 *fill*         0x40235293        0x0 
 *fill*         0x40235293        0xd 
 .irom.text     0x402352a0       0x65 c:/Espressif/ESP8266_SDK/lib\libphy.a(phy_chip_v6_ana.o)
 *fill*         0x40235305        0x0 
 *fill*         0x40235305        0xb 
 .irom.text     0x40235310      0x148 c:/Espressif/ESP8266_SDK/lib\libphy.a(phy_chip_v6.o)
 *fill*         0x40235458        0x8 
 .irom.text     0x40235460      0x174 c:/Espressif/ESP8266_SDK/lib\libphy.a(phy_chip_v6_cal.o)
 .irom0.text    0x402355d4        0xc c:/Espressif/ESP8266_SDK/lib\libphy.a(phy_chip_v6_unused.o)
                0x402355d4                chip_v6_set_sense
                0x402355d8                chip_v6_get_sense
                0x402355dc                chip_v6_unset_chanfreq
 *fill*         0x402355e0        0x0 
 *fill*         0x402355e0        0x0 
 .irom.text     0x402355e0       0x50 c:/Espressif/ESP8266_SDK/lib\libpp.a(if_hwctrl.o)
 *fill*         0x40235630        0x0 
 .irom.text     0x40235630       0x2f c:/Espressif/ESP8266_SDK/lib\libpp.a(lmac.o)
 *fill*         0x4023565f        0x0 
 *fill*         0x4023565f        0x1 
 .irom.text     0x40235660      0x10d c:/Espressif/ESP8266_SDK/lib\libpp.a(pm.o)
 *fill*         0x4023576d        0x0 
 *fill*         0x4023576d        0x3 
 .irom.text     0x40235770      0x145 c:/Espressif/ESP8266_SDK/lib\libpp.a(pm_for_bcn_only_mode.o)
 *fill*         0x402358b5        0x0 
 *fill*         0x402358b5        0xb 
 .irom.text     0x402358c0       0x5b c:/Espressif/ESP8266_SDK/lib\libpp.a(pp.o)
 *fill*         0x4023591b        0x0 
 *fill*         0x4023591b        0x0 
 *fill*         0x4023591b        0x5 
 .irom.text     0x40235920       0x38 c:/Espressif/ESP8266_SDK/lib\libpp.a(trc.o)
 *fill*         0x40235958        0x0 
 .irom.text     0x40235958        0x7 c:/Espressif/ESP8266_SDK/lib\libpp.a(wdev.o)
 *fill*         0x4023595f        0x0 
 *fill*         0x4023595f        0x1 
 .irom.text     0x40235960        0xa c:/Espressif/ESP8266_SDK/lib\libpp.a(esf_buf.o)
 *fill*         0x4023596a        0x0 
 *fill*         0x4023596a        0x6 
 .irom.text     0x40235970       0x82 c:/Espressif/ESP8266_SDK/lib\libnet80211.a(ieee80211.o)
                0x40235980                ieee80211_opcap
 *fill*         0x402359f2        0x0 
 *fill*         0x402359f2        0x0 
 *fill*         0x402359f2        0xe 
 .irom.text     0x40235a00       0x5b c:/Espressif/ESP8266_SDK/lib\libnet80211.a(ieee80211_hostap.o)
 *fill*         0x40235a5b        0x0 
 *fill*         0x40235a5b        0x5 
 .irom.text     0x40235a60       0x19 c:/Espressif/ESP8266_SDK/lib\libnet80211.a(ieee80211_ht.o)
 *fill*         0x40235a79        0x0 
 *fill*         0x40235a79        0x7 
 .irom.text     0x40235a80       0x12 c:/Espressif/ESP8266_SDK/lib\libnet80211.a(ieee80211_input.o)
 *fill*         0x40235a92        0x0 
 *fill*         0x40235a92        0xe 
 .irom.text     0x40235aa0       0x43 c:/Espressif/ESP8266_SDK/lib\libnet80211.a(ieee80211_mesh_quick.o)
 *fill*         0x40235ae3        0x0 
 *fill*         0x40235ae3        0xd 
 .irom.text     0x40235af0       0x1d c:/Espressif/ESP8266_SDK/lib\libnet80211.a(ieee80211_output.o)
 *fill*         0x40235b0d        0x0 
 *fill*         0x40235b0d        0x3 
 .irom.text     0x40235b10      0x1b8 c:/Espressif/ESP8266_SDK/lib\libnet80211.a(ieee80211_phy.o)
 *fill*         0x40235cc8        0x0 
 *fill*         0x40235cc8        0x8 
 .irom.text     0x40235cd0       0x1c c:/Espressif/ESP8266_SDK/lib\libnet80211.a(ieee80211_proto.o)
 *fill*         0x40235cec        0x0 
 *fill*         0x40235cec        0x4 
 .irom.text     0x40235cf0       0x99 c:/Espressif/ESP8266_SDK/lib\libnet80211.a(ieee80211_scan.o)
 *fill*         0x40235d89        0x0 
 *fill*         0x40235d89        0x7 
 .irom.text     0x40235d90       0x26 c:/Espressif/ESP8266_SDK/lib\libnet80211.a(ieee80211_sta.o)
 *fill*         0x40235db6        0x0 
 *fill*         0x40235db6        0x0 
 *fill*         0x40235db6        0xa 
 .irom.text     0x40235dc0      0x167 c:/Espressif/ESP8266_SDK/lib\libnet80211.a(wl_cnx.o)
 *fill*         0x40235f27        0x0 
 *fill*         0x40235f27        0x0 
 *fill*         0x40235f27        0x9 
 .irom.text     0x40235f30       0x83 c:/Espressif/ESP8266_SDK/lib\libnet80211.a(ieee80211_action_vendor.o)
 *fill*         0x40235fb3        0x0 
 *fill*         0x40235fb3        0x1 
 .irom.text     0x40235fb4       0x18 c:/Espressif/ESP8266_SDK/lib\libnet80211.a(ieee80211_crypto_ccmp.o)
                0x40235fb4                ccmp
 *fill*         0x40235fcc        0x0 
 *fill*         0x40235fcc        0x4 
 .irom.text     0x40235fd0       0x1e c:/Espressif/ESP8266_SDK/lib\liblwip.a(dhcp.o)
 *fill*         0x40235fee        0x0 
 *fill*         0x40235fee        0x2 
 .irom.text     0x40235ff0       0x65 c:/Espressif/ESP8266_SDK/lib\liblwip.a(dhcpserver.o)
 *fill*         0x40236055        0x0 
 *fill*         0x40236055        0x3 
 .irom.text     0x40236058        0x6 c:/Espressif/ESP8266_SDK/lib\liblwip.a(dns.o)
 *fill*         0x4023605e        0x0 
 *fill*         0x4023605e        0x2 
 .irom.text     0x40236060       0xab c:/Espressif/ESP8266_SDK/lib\liblwip.a(espconn_tcp.o)
 *fill*         0x4023610b        0x0 
 *fill*         0x4023610b        0x5 
 .irom.text     0x40236110        0x9 c:/Espressif/ESP8266_SDK/lib\liblwip.a(etharp.o)
 *fill*         0x40236119        0x0 
 *fill*         0x40236119        0x3 
 .irom.text     0x4023611c        0x8 c:/Espressif/ESP8266_SDK/lib\liblwip.a(ip_addr.o)
                0x4023611c                ip_addr_any
                0x40236120                ip_addr_broadcast
 *fill*         0x40236124        0xc 
 .irom.text     0x40236130       0x11 c:/Espressif/ESP8266_SDK/lib\liblwip.a(ip.o)
 *fill*         0x40236141        0xf 
 .irom.text     0x40236150       0x28 c:/Espressif/ESP8266_SDK/lib\liblwip.a(memp.o)
                0x40236150                memp_sizes
 *fill*         0x40236178        0x0 
 *fill*         0x40236178        0x0 
 .irom.text     0x40236178        0x7 c:/Espressif/ESP8266_SDK/lib\liblwip.a(pbuf.o)
 *fill*         0x4023617f        0x1 
 .irom.text     0x40236180        0x6 c:/Espressif/ESP8266_SDK/lib\liblwip.a(raw.o)
 *fill*         0x40236186        0x0 
 *fill*         0x40236186        0xa 
 .irom.text     0x40236190        0x9 c:/Espressif/ESP8266_SDK/lib\liblwip.a(tcp_in.o)
 *fill*         0x40236199        0x0 
 *fill*         0x40236199        0x7 
 .irom.text     0x402361a0       0x3d c:/Espressif/ESP8266_SDK/lib\liblwip.a(tcp.o)
                0x402361b0                tcp_pcb_lists
                0x402361c0                tcp_persist_backoff
                0x402361d0                tcp_backoff
 *fill*         0x402361dd        0x0 
 *fill*         0x402361dd        0x3 
 .irom.text     0x402361e0        0xa c:/Espressif/ESP8266_SDK/lib\liblwip.a(tcp_out.o)
 *fill*         0x402361ea        0x0 
 *fill*         0x402361ea        0x6 
 .irom.text     0x402361f0        0x9 c:/Espressif/ESP8266_SDK/lib\liblwip.a(timers.o)
 *fill*         0x402361f9        0x0 
 *fill*         0x402361f9        0x7 
 .irom.text     0x40236200        0x6 c:/Espressif/ESP8266_SDK/lib\liblwip.a(udp.o)
 *fill*         0x40236206        0x0 
 *fill*         0x40236206        0xa 
 .irom.text     0x40236210        0xa c:/Espressif/ESP8266_SDK/lib\liblwip.a(espconn.o)
 *fill*         0x4023621a        0x0 
 *fill*         0x4023621a        0x6 
 .irom.text     0x40236220        0xe c:/Espressif/ESP8266_SDK/lib\liblwip.a(espconn_udp.o)
 *fill*         0x4023622e        0x0 
 *fill*         0x4023622e        0x0 
 *fill*         0x4023622e        0x2 
 .irom.text     0x40236230        0x7 c:/Espressif/ESP8266_SDK/lib\liblwip.a(igmp.o)
 *fill*         0x40236237        0x1 
 .irom0.text    0x40236238      0x298 c:/Espressif/ESP8266_SDK/lib\liblwip.a(inet_chksum.o)
                0x402362b0                inet_chksum_pseudo
                0x40236370                inet_chksum_pseudo_partial
                0x4023644c                inet_chksum
                0x40236464                inet_chksum_pbuf
 *fill*         0x402364d0        0x0 
 .irom.text     0x402364d0        0xc c:/Espressif/ESP8266_SDK/lib\libwpa.a(ap_config.o)
 *fill*         0x402364dc        0x4 
 .irom.text     0x402364e0        0x9 c:/Espressif/ESP8266_SDK/lib\libwpa.a(common.o)
 *fill*         0x402364e9        0x0 
 *fill*         0x402364e9        0x7 
 .irom.text     0x402364f0        0xc c:/Espressif/ESP8266_SDK/lib\libwpa.a(os_xtensa.o)
 *fill*         0x402364fc        0x4 
 .irom.text     0x40236500       0x74 c:/Espressif/ESP8266_SDK/lib\libwpa.a(wpa_auth.o)
 *fill*         0x40236574        0xc 
 .irom.text     0x40236580        0xe c:/Espressif/ESP8266_SDK/lib\libwpa.a(wpa_auth_ie.o)
 *fill*         0x4023658e        0x0 
 *fill*         0x4023658e        0x2 
 .irom.text     0x40236590       0x17 c:/Espressif/ESP8266_SDK/lib\libwpa.a(wpa.o)
 *fill*         0x402365a7        0x0 
 *fill*         0x402365a7        0x9 
 .irom.text     0x402365b0       0x1c c:/Espressif/ESP8266_SDK/lib\libwpa.a(wpa_common.o)
 *fill*         0x402365cc        0x0 
 *fill*         0x402365cc        0x4 
 .irom.text     0x402365d0       0x67 c:/Espressif/ESP8266_SDK/lib\libwpa.a(wpa_main.o)
 *fill*         0x40236637        0x0 
 *fill*         0x40236637        0x0 
 *fill*         0x40236637        0x0 
 *fill*         0x40236637        0x9 
 .irom.text     0x40236640       0x13 c:/Espressif/ESP8266_SDK/lib\libcrypto.a(aes-internal-enc.o)
 *fill*         0x40236653        0x0 
 *fill*         0x40236653        0x0 
 *fill*         0x40236653        0x1 
 .irom.text     0x40236654       0x18 c:/Espressif/ESP8266_SDK/lib\libnet80211.a(ieee80211_crypto_tkip.o)
                0x40236654                tkip
 .irom.text     0x4023666c       0x18 c:/Espressif/ESP8266_SDK/lib\libnet80211.a(ieee80211_crypto_wep.o)
                0x4023666c                wep
 out/build/app_app.a:*(.literal .text .literal.* .text.* .stub .gnu.warning .gnu.linkonce.literal.* .gnu.linkonce.t.*.literal .gnu.linkonce.t.*)
 .text._Z4loopv
                0x40236684       0x2d out/build/app_app.a(application.o)
                                 0x31 (size before relaxing)
                0x40236688                loop()
 *fill*         0x402366b1        0x3 
 .text._Z4initv
                0x402366b4       0x3b out/build/app_app.a(application.o)
                                 0x43 (size before relaxing)
                0x402366c4                init()
 *fill*         0x402366ef        0x1 
 .text.startup._GLOBAL__sub_I_procTimer
                0x402366f0       0x31 out/build/app_app.a(application.o)
                                 0x49 (size before relaxing)
 *fill*         0x40236721        0x3 
 .text.exit._GLOBAL__sub_D_procTimer
                0x40236724       0x15 out/build/app_app.a(application.o)
                                 0x1d (size before relaxing)
 *fill*         0x40236739        0x0 
 *fill*         0x40236739        0x0 
 *fill*         0x40236739        0x0 
 *libsming.a:*(.literal .text .literal.* .text.* .stub .gnu.warning .gnu.linkonce.literal.* .gnu.linkonce.t.*.literal .gnu.linkonce.t.*)
 *fill*         0x40236739        0x3 
 .text._ZN17ESP01_DescriptionC2Ev
                0x4023673c       0x3f c:/tools/sming/Sming/compiler/lib/\libsming.a(user_main.o)
                0x40236740                ESP01_Description::ESP01_Description()
                0x40236740                ESP01_Description::ESP01_Description()
 *fill*         0x4023677b        0x1 
 .text.user_init
                0x4023677c       0x2c c:/tools/sming/Sming/compiler/lib/\libsming.a(user_main.o)
                                 0x4c (size before relaxing)
                0x40236780                user_init
 .text.startup._GLOBAL__sub_I_user_main_cpp
                0x402367a8       0x28 c:/tools/sming/Sming/compiler/lib/\libsming.a(user_main.o)
                                 0x38 (size before relaxing)
 .text._ZN6VectorI8DelegateIFvvEEEixEj
                0x402367d0       0x22 c:/tools/sming/Sming/compiler/lib/\libsming.a(System.o)
                                 0x26 (size before relaxing)
                0x402367d0                Vector<Delegate<void ()> >::operator[](unsigned int)
 *fill*         0x402367f2        0x2 
 .text._ZN6VectorIP19ISystemReadyHandlerEixEj
                0x402367f4       0x22 c:/tools/sming/Sming/compiler/lib/\libsming.a(System.o)
                                 0x26 (size before relaxing)
                0x402367f4                Vector<ISystemReadyHandler*>::operator[](unsigned int)
 *fill*         0x40236816        0x2 
 .text._ZNK6VectorIP19ISystemReadyHandlerEixEj
                0x40236818       0x22 c:/tools/sming/Sming/compiler/lib/\libsming.a(System.o)
                                 0x26 (size before relaxing)
                0x40236818                Vector<ISystemReadyHandler*>::operator[](unsigned int) const
 *fill*         0x4023683a        0x2 
 .text._ZNK6VectorI8DelegateIFvvEEEixEj
                0x4023683c       0x22 c:/tools/sming/Sming/compiler/lib/\libsming.a(System.o)
                                 0x26 (size before relaxing)
                0x4023683c                Vector<Delegate<void ()> >::operator[](unsigned int) const
 *fill*         0x4023685e        0x2 
 .text._ZN11SystemClassC2Ev
                0x40236860       0x4f c:/tools/sming/Sming/compiler/lib/\libsming.a(System.o)
                                 0x5b (size before relaxing)
                0x40236868                SystemClass::SystemClass()
                0x40236868                SystemClass::SystemClass()
 *fill*         0x402368af        0x1 
 .text._ZN11SystemClass10initializeEv
                0x402368b0       0x21 c:/tools/sming/Sming/compiler/lib/\libsming.a(System.o)
                                 0x25 (size before relaxing)
                0x402368b4                SystemClass::initialize()
 *fill*         0x402368d1        0x3 
 .text._ZN6VectorI8DelegateIFvvEEE17removeAllElementsEv
                0x402368d4       0x4e c:/tools/sming/Sming/compiler/lib/\libsming.a(System.o)
                                 0x52 (size before relaxing)
                0x402368d4                Vector<Delegate<void ()> >::removeAllElements()
 *fill*         0x40236922        0x2 
 .text._ZN6VectorI8DelegateIFvvEEED2Ev
                0x40236924       0x25 c:/tools/sming/Sming/compiler/lib/\libsming.a(System.o)
                                 0x35 (size before relaxing)
                0x40236924                Vector<Delegate<void ()> >::~Vector()
                0x40236924                Vector<Delegate<void ()> >::~Vector()
 *fill*         0x40236949        0x3 
 .text._ZN6VectorI8DelegateIFvvEEED0Ev
                0x4023694c       0x1d c:/tools/sming/Sming/compiler/lib/\libsming.a(System.o)
                                 0x29 (size before relaxing)
                0x4023694c                Vector<Delegate<void ()> >::~Vector()
 *fill*         0x40236969        0x3 
 .text._ZN6VectorIP19ISystemReadyHandlerE17removeAllElementsEv
                0x4023696c       0x33 c:/tools/sming/Sming/compiler/lib/\libsming.a(System.o)
                                 0x37 (size before relaxing)
                0x4023696c                Vector<ISystemReadyHandler*>::removeAllElements()
 *fill*         0x4023699f        0x1 
 .text._ZN6VectorIP19ISystemReadyHandlerED2Ev
                0x402369a0       0x25 c:/tools/sming/Sming/compiler/lib/\libsming.a(System.o)
                                 0x35 (size before relaxing)
                0x402369a0                Vector<ISystemReadyHandler*>::~Vector()
                0x402369a0                Vector<ISystemReadyHandler*>::~Vector()
 *fill*         0x402369c5        0x3 
 .text._ZN6VectorIP19ISystemReadyHandlerED0Ev
                0x402369c8       0x1d c:/tools/sming/Sming/compiler/lib/\libsming.a(System.o)
                                 0x29 (size before relaxing)
                0x402369c8                Vector<ISystemReadyHandler*>::~Vector()
 *fill*         0x402369e5        0x3 
 .text._ZN11SystemClass12readyHandlerEv
                0x402369e8       0x71 c:/tools/sming/Sming/compiler/lib/\libsming.a(System.o)
                                 0x85 (size before relaxing)
                0x402369e8                SystemClass::readyHandler()
 *fill*         0x40236a59        0x3 
 .text._ZN11SystemClass18staticReadyHandlerEv
                0x40236a5c       0x15 c:/tools/sming/Sming/compiler/lib/\libsming.a(System.o)
                                 0x1d (size before relaxing)
                0x40236a5c                SystemClass::staticReadyHandler()
 *fill*         0x40236a71        0x3 
 .text.startup._GLOBAL__sub_I_System
                0x40236a74       0x15 c:/tools/sming/Sming/compiler/lib/\libsming.a(System.o)
                                 0x1d (size before relaxing)
 *fill*         0x40236a89        0x3 
 .text.exit._GLOBAL__sub_D_System
                0x40236a8c       0x1e c:/tools/sming/Sming/compiler/lib/\libsming.a(System.o)
                                 0x2e (size before relaxing)
 *fill*         0x40236aaa        0x2 
 .text.cpp_core_initialize
                0x40236aac       0x2d c:/tools/sming/Sming/compiler/lib/\libsming.a(esp_cplusplus.o)
                0x40236ab4                cpp_core_initialize
 *fill*         0x40236ad9        0x3 
 .text._Znaj    0x40236adc        0xf c:/tools/sming/Sming/compiler/lib/\libsming.a(esp_cplusplus.o)
                                 0x17 (size before relaxing)
                0x40236adc                operator new[](unsigned int)
 *fill*         0x40236aeb        0x1 
 .text._ZdaPv   0x40236aec       0x11 c:/tools/sming/Sming/compiler/lib/\libsming.a(esp_cplusplus.o)
                                 0x18 (size before relaxing)
                0x40236aec                operator delete[](void*)
 *fill*         0x40236afd        0x3 
 .text._ZdlPv   0x40236b00        0xf c:/tools/sming/Sming/compiler/lib/\libsming.a(esp_cplusplus.o)
                                 0x17 (size before relaxing)
                0x40236b00                operator delete(void*)
 *fill*         0x40236b0f        0x1 
 .text.m_vsnprintf
                0x40236b10      0x314 c:/tools/sming/Sming/compiler/lib/\libsming.a(m_printf.o)
                                0x330 (size before relaxing)
                0x40236b10                m_vsnprintf
 .text.m_printf
                0x40236e24       0x72 c:/tools/sming/Sming/compiler/lib/\libsming.a(m_printf.o)
                                 0x76 (size before relaxing)
                0x40236e28                m_printf
 *fill*         0x40236e96        0x2 
 .text.startup._GLOBAL__sub_I_cbc_printchar
                0x40236e98       0x28 c:/tools/sming/Sming/compiler/lib/\libsming.a(m_printf.o)
                                 0x38 (size before relaxing)
 .text.ltoa_w   0x40236ec0       0xe2 c:/tools/sming/Sming/compiler/lib/\libsming.a(stringconversion.o)
                                 0xee (size before relaxing)
                0x40236ed0                ltoa_w
 *fill*         0x40236fa2        0x2 
 .text.ltoa     0x40236fa4       0x14 c:/tools/sming/Sming/compiler/lib/\libsming.a(stringconversion.o)
                                 0x18 (size before relaxing)
                0x40236fa4                ltoa
 .text.ultoa_wp
                0x40236fb8       0xc2 c:/tools/sming/Sming/compiler/lib/\libsming.a(stringconversion.o)
                                 0xde (size before relaxing)
                0x40236fb8                ultoa_wp
 *fill*         0x4023707a        0x2 
 .text.ultoa_w  0x4023707c       0x13 c:/tools/sming/Sming/compiler/lib/\libsming.a(stringconversion.o)
                                 0x1b (size before relaxing)
                0x4023707c                ultoa_w
 *fill*         0x4023708f        0x1 
 .text.ultoa    0x40237090       0x14 c:/tools/sming/Sming/compiler/lib/\libsming.a(stringconversion.o)
                                 0x18 (size before relaxing)
                0x40237090                ultoa
 .text.dtostrf  0x402370a4      0x2ce c:/tools/sming/Sming/compiler/lib/\libsming.a(stringconversion.o)
                                0x32a (size before relaxing)
                0x402370e0                dtostrf
 *fill*         0x40237372        0x2 
 .text._ZNK9IPAddress7printToER5Print
                0x40237374       0x59 c:/tools/sming/Sming/compiler/lib/\libsming.a(IPAddress.o)
                                 0x6d (size before relaxing)
                0x40237374                IPAddress::printTo(Print&) const
 *fill*         0x402373cd        0x3 
 .text._ZN9IPAddressC2Ehhhh
                0x402373d0       0x17 c:/tools/sming/Sming/compiler/lib/\libsming.a(IPAddress.o)
                0x402373d4                IPAddress::IPAddress(unsigned char, unsigned char, unsigned char, unsigned char)
                0x402373d4                IPAddress::IPAddress(unsigned char, unsigned char, unsigned char, unsigned char)
 *fill*         0x402373e7        0x1 
 .text.startup._GLOBAL__sub_I__ZN9IPAddressC2Ev
                0x402373e8       0x19 c:/tools/sming/Sming/compiler/lib/\libsming.a(IPAddress.o)
                                 0x1d (size before relaxing)
 *fill*         0x40237401        0x3 
 .text._ZN5Print5writeEPKc
                0x40237404       0x2e c:/tools/sming/Sming/compiler/lib/\libsming.a(Print.o)
                                 0x32 (size before relaxing)
                0x40237404                Print::write(char const*)
 *fill*         0x40237432        0x2 
 .text._ZN5Print11printNumberEmh
                0x40237434       0x74 c:/tools/sming/Sming/compiler/lib/\libsming.a(Print.o)
                                 0x80 (size before relaxing)
                0x40237434                Print::printNumber(unsigned long, unsigned char)
 .text._ZN5Print5printEmi
                0x402374a8       0x21 c:/tools/sming/Sming/compiler/lib/\libsming.a(Print.o)
                                 0x28 (size before relaxing)
                0x402374a8                Print::print(unsigned long, int)
 *fill*         0x402374c9        0x3 
 .text._ZN5Print5printEhi
                0x402374cc       0x15 c:/tools/sming/Sming/compiler/lib/\libsming.a(Print.o)
                                 0x19 (size before relaxing)
                0x402374cc                Print::print(unsigned char, int)
 *fill*         0x402374e1        0x3 
 .text.startup._GLOBAL__sub_I__ZN5Print5writeEPKhj
                0x402374e4       0x21 c:/tools/sming/Sming/compiler/lib/\libsming.a(Print.o)
                                 0x25 (size before relaxing)
 *fill*         0x40237505        0x3 
 .text.startup._GLOBAL__sub_I__ZN6StringC2EPKc
                0x40237508       0x21 c:/tools/sming/Sming/compiler/lib/\libsming.a(WString.o)
                                 0x25 (size before relaxing)
 *fill*         0x40237529        0x3 
 .text.startup._GLOBAL__sub_I__gpioInterruptsList
                0x4023752c       0x35 c:/tools/sming/Sming/compiler/lib/\libsming.a(Interrupts.o)
                                 0x39 (size before relaxing)
 *fill*         0x40237561        0x3 
 .text.exit._GLOBAL__sub_D__gpioInterruptsList
                0x40237564       0x37 c:/tools/sming/Sming/compiler/lib/\libsming.a(Interrupts.o)
                                 0x3b (size before relaxing)
 *fill*         0x4023759b        0x1 
 .text._Z10isInputPint
                0x4023759c       0x32 c:/tools/sming/Sming/compiler/lib/\libsming.a(Digital.o)
                0x402375a4                isInputPin(unsigned short)
 *fill*         0x402375ce        0x2 
 .text._Z6pullupt
                0x402375d0       0x2a c:/tools/sming/Sming/compiler/lib/\libsming.a(Digital.o)
                0x402375d4                pullup(unsigned short)
 *fill*         0x402375fa        0x2 
 .text._Z7pinModeth
                0x402375fc      0x10c c:/tools/sming/Sming/compiler/lib/\libsming.a(Digital.o)
                                0x123 (size before relaxing)
                0x40237610                pinMode(unsigned short, unsigned char)
 *fill*         0x40237708        0x0 
 .text._Z8noPullupt
                0x40237708       0x26 c:/tools/sming/Sming/compiler/lib/\libsming.a(Digital.o)
                                 0x2a (size before relaxing)
                0x40237708                noPullup(unsigned short)
 *fill*         0x4023772e        0x2 
 .text._Z12digitalWriteth
                0x40237730       0x7b c:/tools/sming/Sming/compiler/lib/\libsming.a(Digital.o)
                                 0x8f (size before relaxing)
                0x4023773c                digitalWrite(unsigned short, unsigned char)
 *fill*         0x402377ab        0x1 
 .text.startup._GLOBAL__sub_I__Z7pinModeth
                0x402377ac       0x21 c:/tools/sming/Sming/compiler/lib/\libsming.a(Digital.o)
                                 0x25 (size before relaxing)
 *fill*         0x402377cd        0x3 
 .text._ZN5TimerC2Ev
                0x402377d0       0x1e c:/tools/sming/Sming/compiler/lib/\libsming.a(Timer.o)
                                 0x26 (size before relaxing)
                0x402377d0                Timer::Timer()
                0x402377d0                Timer::Timer()
 *fill*         0x402377ee        0x2 
 .text._ZN5TimerD2Ev
                0x402377f0       0x31 c:/tools/sming/Sming/compiler/lib/\libsming.a(Timer.o)
                0x402377f4                Timer::~Timer()
                0x402377f4                Timer::~Timer()
 *fill*         0x40237821        0x3 
 .literal._ZN17ESP01_DescriptionC5Ev
                0x40237824        0x0 c:/tools/sming/Sming/compiler/lib/\libsming.a(user_main.o)
 *fill*         0x40237824        0x0 
 .literal._ZNK6VectorI8DelegateIFvvEEE5countEv
                0x40237824        0x0 c:/tools/sming/Sming/compiler/lib/\libsming.a(System.o)
 .literal._ZNK6VectorIP19ISystemReadyHandlerE5countEv
                0x40237824        0x0 c:/tools/sming/Sming/compiler/lib/\libsming.a(System.o)
 .literal._ZN6VectorI8DelegateIFvvEEEixEj
                0x40237824        0x0 c:/tools/sming/Sming/compiler/lib/\libsming.a(System.o)
 .literal._ZN6VectorIP19ISystemReadyHandlerEixEj
                0x40237824        0x0 c:/tools/sming/Sming/compiler/lib/\libsming.a(System.o)
 .literal._ZNK6VectorIP19ISystemReadyHandlerEixEj
                0x40237824        0x0 c:/tools/sming/Sming/compiler/lib/\libsming.a(System.o)
 .literal._ZNK6VectorI8DelegateIFvvEEEixEj
                0x40237824        0x0 c:/tools/sming/Sming/compiler/lib/\libsming.a(System.o)
 .literal._ZN6VectorI8DelegateIFvvEEE17removeAllElementsEv
                0x40237824        0x0 c:/tools/sming/Sming/compiler/lib/\libsming.a(System.o)
 .literal._ZN6VectorI8DelegateIFvvEEED5Ev
                0x40237824        0x0 c:/tools/sming/Sming/compiler/lib/\libsming.a(System.o)
 .literal._ZN6VectorIP19ISystemReadyHandlerE17removeAllElementsEv
                0x40237824        0x0 c:/tools/sming/Sming/compiler/lib/\libsming.a(System.o)
 .literal._ZN6VectorIP19ISystemReadyHandlerED5Ev
                0x40237824        0x0 c:/tools/sming/Sming/compiler/lib/\libsming.a(System.o)
 .text._ZNK6VectorI8DelegateIFvvEEE5countEv
                0x40237824        0x4 c:/tools/sming/Sming/compiler/lib/\libsming.a(System.o)
                0x40237824                Vector<Delegate<void ()> >::count() const
 .text._ZNK6VectorIP19ISystemReadyHandlerE5countEv
                0x40237828        0x4 c:/tools/sming/Sming/compiler/lib/\libsming.a(System.o)
                0x40237828                Vector<ISystemReadyHandler*>::count() const
 *fill*         0x4023782c        0x0 
 *fill*         0x4023782c        0x0 
 *fill*         0x4023782c        0x0 
 *fill*         0x4023782c        0x0 
 *fill*         0x4023782c        0x0 
 *fill*         0x4023782c        0x0 
 *fill*         0x4023782c        0x0 
 *fill*         0x4023782c        0x0 
 *fill*         0x4023782c        0x0 
 *fill*         0x4023782c        0x0 
 *fill*         0x4023782c        0x0 
 *fill*         0x4023782c        0x0 
 *fill*         0x4023782c        0x0 
 *fill*         0x4023782c        0x0 
 *fill*         0x4023782c        0x0 
 *fill*         0x4023782c        0x0 
 *fill*         0x4023782c        0x0 
 *fill*         0x4023782c        0x0 
 *fill*         0x4023782c        0x0 
 *fill*         0x4023782c        0x0 
 *fill*         0x4023782c        0x0 
 *fill*         0x4023782c        0x0 
 *fill*         0x4023782c        0x0 
 *fill*         0x4023782c        0x0 
 *fill*         0x4023782c        0x0 
 *fill*         0x4023782c        0x0 
 *fill*         0x4023782c        0x0 
 .literal._ZN5Print5writeEPKc
                0x4023782c        0x0 c:/tools/sming/Sming/compiler/lib/\libsming.a(Print.o)
 *fill*         0x4023782c        0x0 
 .text._ZN5Print5printEc
                0x4023782c       0x17 c:/tools/sming/Sming/compiler/lib/\libsming.a(Print.o)
                0x4023782c                Print::print(char)
 *fill*         0x40237843        0x0 
 *fill*         0x40237843        0x0 
 *fill*         0x40237843        0x0 
 *fill*         0x40237843        0x1 
 .literal._ZN8DelegateIFvvEE4copyERKS1_
                0x40237844        0x0 c:/tools/sming/Sming/compiler/lib/\libsming.a(Interrupts.o)
 .text._ZN8DelegateIFvvEE4copyERKS1_
                0x40237844       0x3c c:/tools/sming/Sming/compiler/lib/\libsming.a(Interrupts.o)
                0x40237844                Delegate<void ()>::copy(Delegate<void ()> const&)
 *fill*         0x40237880        0x0 
 *fill*         0x40237880        0x0 
 *fill*         0x40237880        0x0 
 *fill*         0x40237880        0x0 
 *fill*         0x40237880        0x0 
 *fill*         0x40237880        0x0 
 *fill*         0x40237880        0x0 
 *fill*         0x40237880        0x0 
 *fill*         0x40237880        0x0 
                0x40237880                _irom0_text_end = ABSOLUTE (.)
                0x40237880                _flash_code_end = ABSOLUTE (.)

.text           0x40100000     0x5802
                0x40100000                _stext = .
                0x40100000                _text_start = ABSOLUTE (.)
 *(.UserEnter.text)
 .UserEnter.text
                0x40100000        0xd c:/Espressif/ESP8266_SDK/lib\libmain.a(vector.o)
                                 0x14 (size before relaxing)
                0x40100004                call_user_start
                0x40100010                . = ALIGN (0x10)
 *fill*         0x4010000d        0x3 
 *(.DebugExceptionVector.text)
 .DebugExceptionVector.text
                0x40100010        0x6 c:/Espressif/ESP8266_SDK/lib\libmain.a(debug-vector.o)
                0x40100010                _DebugExceptionVector
                0x40100020                . = ALIGN (0x10)
 *fill*         0x40100016        0xa 
 *(.NMIExceptionVector.text)
 .NMIExceptionVector.text
                0x40100020        0x6 c:/Espressif/ESP8266_SDK/lib\libmain.a(nmi-vector.o)
                                  0xd (size before relaxing)
                0x40100020                _NMIExceptionVector
                0x40100030                . = ALIGN (0x10)
 *fill*         0x40100026        0xa 
 *(.KernelExceptionVector.text)
 .KernelExceptionVector.text
                0x40100030        0x6 c:/Espressif/ESP8266_SDK/lib\libmain.a(kernel-vector.o)
                0x40100030                _KernelExceptionVector
                0x40100036        0x4 LONG 0x0
                0x4010003a        0x4 LONG 0x0
                0x4010003e        0x4 LONG 0x0
                0x40100042        0x4 LONG 0x0
                0x40100050                . = ALIGN (0x10)
 *fill*         0x40100046        0xa 
 *(.UserExceptionVector.text)
 .UserExceptionVector.text
                0x40100050        0x6 c:/Espressif/ESP8266_SDK/lib\libmain.a(user-vector.o)
                                  0xd (size before relaxing)
                0x40100050                _UserExceptionVector
                0x40100056        0x4 LONG 0x0
                0x4010005a        0x4 LONG 0x0
                0x4010005e        0x4 LONG 0x0
                0x40100062        0x4 LONG 0x0
                0x40100070                . = ALIGN (0x10)
 *fill*         0x40100066        0xa 
 *(.DoubleExceptionVector.text)
 .DoubleExceptionVector.text
                0x40100070        0x6 c:/Espressif/ESP8266_SDK/lib\libmain.a(double-vector.o)
                0x40100070                _DoubleExceptionVector
                0x40100076        0x4 LONG 0x0
                0x4010007a        0x4 LONG 0x0
                0x4010007e        0x4 LONG 0x0
                0x40100082        0x4 LONG 0x0
                0x40100090                . = ALIGN (0x10)
 *fill*         0x40100086        0xa 
 *(.entry.text)
 *(.init.literal)
 *(.init)
 *(.literal .text .literal.* .text.* .stub .gnu.warning .gnu.linkonce.literal.* .gnu.linkonce.t.*.literal .gnu.linkonce.t.*)
 .text          0x40100090       0xc7 c:/Espressif/ESP8266_SDK/lib\libmain.a(nmi-vector.o)
                                 0xcb (size before relaxing)
                0x4010009c                _NMILevelVector
 *fill*         0x40100157        0x1 
 .text          0x40100158       0x1e c:/Espressif/ESP8266_SDK/lib\libmain.a(user-vector.o)
                0x4010015c                _UserExceptionVector_1
 *fill*         0x40100176        0x2 
 .text          0x40100178      0x563 c:/Espressif/ESP8266_SDK/lib\libmain.a(app_main.o)
                                0x5bb (size before relaxing)
                0x401001b0                Cache_Read_Enable_New
                0x401001ec                NmiTimSetFunc
                0x40100210                NMI_Handler
                0x40100268                call_user_start_local
                0x40100388                wdt_feed
 *fill*         0x401006db        0x1 
 .text          0x401006dc      0x267 c:/Espressif/ESP8266_SDK/lib\libmain.a(ets_timer.o)
                                0x29f (size before relaxing)
                0x40100748                ets_timer_setfn
                0x401007c0                ets_timer_disarm
                0x40100850                ets_timer_arm_new
 *fill*         0x40100943        0x1 
 .text          0x40100944      0x30f c:/Espressif/ESP8266_SDK/lib\libmain.a(mem_manager.o)
                                0x367 (size before relaxing)
                0x40100948                prvInsertBlockIntoUsedList
                0x40100978                system_show_malloc
                0x40100978                pvShowMalloc
                0x40100a04                prvRemoveBlockFromUsedList
                0x40100a30                xPortWantedSizeAlign
                0x40100a58                pvPortMalloc
                0x40100b20                vPortFree
                0x40100b78                pvPortCalloc
                0x40100ba8                pvPortZalloc
                0x40100bc4                pvPortRealloc
 *fill*         0x40100c53        0x1 
 .text          0x40100c54      0x241 c:/Espressif/ESP8266_SDK/lib\libmain.a(spi_flash.o)
                                0x291 (size before relaxing)
                0x40100c58                Cache_Read_Disable_2
                0x40100c98                Cache_Read_Enable_2
                0x40100cd0                spi_flash_get_id
                0x40100d2c                spi_flash_read_status
                0x40100d5c                spi_flash_write_status
                0x40100dbc                spi_flash_erase_sector
                0x40100dec                spi_flash_write
                0x40100e40                spi_flash_read
 *fill*         0x40100e95        0x3 
 .text          0x40100e98      0x2ee c:/Espressif/ESP8266_SDK/lib\libmain.a(user_interface.o)
                                0x34a (size before relaxing)
                0x40100eb4                os_printf_plus
                0x40100fe0                system_restart_core
                0x40101018                system_deep_sleep_local_2
                0x4010108c                system_get_time
                0x401010a4                system_os_post
                0x401010d8                system_rtc_mem_write
                0x40101130                system_rtc_mem_read
 *fill*         0x40101186        0x2 
 .literal       0x40101188        0x4 c:/tools/sming/Sming/compiler/lib/\libmicrogcc.a(_cmpdf2.o)
                                 0x18 (size before relaxing)
 .literal       0x4010118c        0x4 c:/tools/sming/Sming/compiler/lib/\libmicrogcc.a(_fixsfsi.o)
 .text          0x40101190      0x169 c:/tools/sming/Sming/compiler/lib/\libmicrogcc.a(_cmpdf2.o)
                0x40101190                __nedf2
                0x40101190                __eqdf2
                0x401011c0                __gtdf2
                0x401011e4                __ledf2
                0x40101248                __gedf2
                0x4010126c                __ltdf2
                0x401012d0                __unorddf2
 *fill*         0x401012f9        0x3 
 .text          0x401012fc       0x53 c:/Espressif/ESP8266_SDK/lib\libphy.a(phy.o)
                                 0x5f (size before relaxing)
                0x40101304                register_phy_ops
                0x40101324                register_get_phy_addr
                0x4010132c                phy_change_channel
                0x40101344                phy_get_mactime
 *fill*         0x4010134f        0x1 
 .text          0x40101350       0xaa c:/Espressif/ESP8266_SDK/lib\libphy.a(phy_chip_v6_cal.o)
                                 0xb2 (size before relaxing)
                0x40101350                unsign_to_sign
                0x40101388                phy_get_bb_freqoffset
                0x401013ec                phy_get_bb_evm
 *fill*         0x401013fa        0x2 
 .text          0x401013fc       0xef c:/Espressif/ESP8266_SDK/lib\libphy.a(phy_sleep.o)
                                0x103 (size before relaxing)
                0x40101408                pm_rtc_clock_cali
                0x401014c0                clockgate_watchdog
 *fill*         0x401014eb        0x1 
 .text          0x401014ec     0x1642 c:/Espressif/ESP8266_SDK/lib\libpp.a(lmac.o)
                               0x19c2 (size before relaxing)
                0x401014f0                lmacIsActive
                0x40101504                lmacIsIdle
                0x401019a0                lmacSetAcParam
                0x401019f4                lmacProcessTXStartData
                0x40101b98                lmacProcessTxSuccess
                0x40101cd4                GetAccess
                0x40101ce0                lmacDiscardAgedMSDU
                0x40101cf4                lmacRecycleMPDU
                0x401022bc                lmacProcessTxTimeout
                0x40102324                lmacProcessAllTxTimeout
                0x40102338                lmacProcessCollisions
                0x40102398                lmacProcessCollision
                0x4010241c                lmacMSDUAged
                0x401027a8                lmacProcessCtsTimeout
                0x401027f0                lmacProcessAckTimeout
                0x40102844                lmacProcessRtsStart
                0x40102850                lmacProcessTxRtsError
                0x401028ec                lmacProcessTxError
                0x40102974                lmacTxFrame
                0x40102b18                lmacRxDone
 *fill*         0x40102b2e        0x2 
 .text          0x40102b30      0x8e1 c:/Espressif/ESP8266_SDK/lib\libpp.a(pp.o)
                                0x9fd (size before relaxing)
                0x40102b64                pp_soft_wdt_feed_local
                0x40102bf8                ppProcessTxQ
                0x40102c6c                ppFetchTxQFirstAvail
                0x40102cac                ppDequeueTxQ
                0x40102cd4                ppRollBackTxQ
                0x40102cf8                ppRecordBarRRC
                0x40102d08                ppTxqUpdateBitmap
                0x40102d30                ppEnqueueTxDone
                0x40102d64                ppEnqueueRxq
                0x4010324c                ppDiscardMPDU
                0x40103270                pp_post
                0x401032fc                pp_post2
                0x40103324                ppCalTxop
                0x401033a4                ppCalFrameTimes
 *fill*         0x40103411        0x3 
 .text          0x40103414       0xf5 c:/Espressif/ESP8266_SDK/lib\libpp.a(rate_control.o)
                                0x109 (size before relaxing)
                0x40103434                RC_GetAckRate
                0x40103440                RC_GetRtsRate
                0x40103450                RC_GetAckTime
                0x40103464                RC_GetCtsTime
                0x4010349c                RC_GetBlockAckTime
 *fill*         0x40103509        0x3 
 .text          0x4010350c      0x9a1 c:/Espressif/ESP8266_SDK/lib\libpp.a(trc.o)
                                0xa05 (size before relaxing)
                0x401036e0                rcUpdateTxDone
                0x40103774                rcUpdateRxDone
                0x401037d0                rcUpdateDataRxDone
                0x401037ec                rcGetSched
                0x401038d0                rcGetRate
                0x40103de0                rcReachRetryLimit
                0x40103df8                trc_NeedRTS
 *fill*         0x40103ead        0x3 
 .text          0x40103eb0     0x1033 c:/Espressif/ESP8266_SDK/lib\libpp.a(wdev.o)
                               0x1337 (size before relaxing)
                0x40104254                wDev_MacTim1SetFunc
                0x40104274                wDev_MacTim1Arm
                0x40104304                wDev_ProcessFiq
                0x40104620                wDev_EnableTransmit
                0x40104658                wDev_DisableTransmit
                0x40104678                Tx_Copy2Queue
                0x401046c0                wDev_ProcessCollision
                0x401046e4                wDev_GetTxqCollisions
                0x401046f4                wDev_ClearTxqCollisions
                0x40104710                wDev_SetWaitingQueue
                0x40104758                wDev_ClearWaitingQueue
                0x4010477c                wDev_SetFrameAckType
                0x401047e0                wDev_AppendRxBlocks
                0x40104924                wDev_AppendRxAmpduLensBlocks
                0x401049f8                wDev_GetBAInfo
                0x40104a2c                wDevDisableRx
 *fill*         0x40104ee3        0x1 
 .text          0x40104ee4       0x4c c:/Espressif/ESP8266_SDK/lib\libpp.a(esf_buf.o)
                                 0x5c (size before relaxing)
                0x40104ee8                esf_rx_buf_alloc
 .text          0x40104f30       0x23 c:/Espressif/ESP8266_SDK/lib\libnet80211.a(ieee80211_output.o)
                                 0x27 (size before relaxing)
 *fill*         0x40104f53        0x1 
 .text          0x40104f54        0xb c:/Espressif/ESP8266_SDK/lib\libnet80211.a(wl_chm.o)
                0x40104f58                chm_get_current_channel
 *fill*         0x40104f5f        0x1 
 .text          0x40104f60       0x43 c:/Espressif/ESP8266_SDK/lib\liblwip.a(etharp.o)
                                 0x47 (size before relaxing)
 *fill*         0x40104fa3        0x1 
 .text          0x40104fa4      0x201 c:/Espressif/ESP8266_SDK/lib\liblwip.a(tcp.o)
                                0x229 (size before relaxing)
 *fill*         0x401051a5        0x3 
 .text          0x401051a8      0x15d c:/Espressif/ESP8266_SDK/lib\liblwip.a(tcp_out.o)
                                0x161 (size before relaxing)
 *fill*         0x40105305        0x3 
 .text          0x40105308       0xb4 c:/Espressif/ESP8266_SDK/lib\liblwip.a(timers.o)
                                 0xc0 (size before relaxing)
 .text          0x401053bc       0x40 c:/tools/sming/Sming/compiler/lib/\libmicrogcc.a(_fixsfsi.o)
                0x401053bc                __fixsfsi
 *fill*         0x401053fc        0x0 
 *fill*         0x401053fc        0x0 
 *fill*         0x401053fc        0x0 
 *fill*         0x401053fc        0x0 
 *fill*         0x401053fc        0x0 
 *fill*         0x401053fc        0x0 
 *fill*         0x401053fc        0x0 
 *fill*         0x401053fc        0x0 
 .text          0x401053fc       0x49 c:/tools/sming/Sming/compiler/lib/\libmicrogcc.a(_modsi3.o)
                0x401053fc                __modsi3
 *fill*         0x40105445        0x3 
 .text          0x40105448        0x5 c:/espressif/xtensa-lx106-elf/bin/../lib/gcc/xtensa-lx106-elf/5.1.0/../../../../xtensa-lx106-elf/lib\libhal.a(int_asm--set_intclear.o)
                0x40105448                xthal_set_intclear
 *fill*         0x4010544d        0x0 
 *fill*         0x4010544d        0x0 
 *fill*         0x4010544d        0x0 
 *fill*         0x4010544d        0x0 
 *fill*         0x4010544d        0x0 
 *fill*         0x4010544d        0x0 
 *fill*         0x4010544d        0x0 
 *fill*         0x4010544d        0x0 
 *fill*         0x4010544d        0x3 
 .text          0x40105450       0x25 c:/Espressif/ESP8266_SDK/lib\libnet80211.a(ieee80211_hostap.o)
 *fill*         0x40105475        0x0 
 *fill*         0x40105475        0x0 
 *fill*         0x40105475        0x0 
 *fill*         0x40105475        0x0 
 *fill*         0x40105475        0x0 
 *fill*         0x40105475        0x3 
 .text          0x40105478       0x11 c:/Espressif/ESP8266_SDK/lib\libwpa.a(wpa_auth.o)
 *fill*         0x40105489        0x3 
 .text          0x4010548c       0x18 c:/tools/sming/Sming/compiler/lib/\libmicrogcc.a(_ashrdi3.o)
                0x4010548c                __ashrdi3
 *(.iram.literal .iram.text.literal .iram.text)
 .iram.text     0x401054a4      0x35e c:/tools/sming/Sming/compiler/lib/\libsming.a(Timer.o)
                                0x39a (size before relaxing)
                0x401054a4                Timer::stop()
                0x401054e4                Timer::start(bool)
                0x40105568                Timer::processing(void*)
                0x401055bc                Timer::restart()
                0x401055e0                Timer::setIntervalUs(unsigned long long)
                0x40105650                Timer::setIntervalMs(unsigned int)
                0x4010567c                Timer::setCallback(void (*)())
                0x401056cc                Timer::initializeMs(unsigned int, void (*)())
                0x401056f4                Timer::initializeUs(unsigned int, void (*)())
                0x40105724                Timer::setCallback(Delegate<void ()>)
                0x40105764                Timer::initializeMs(unsigned int, Delegate<void ()>)
                0x401057b4                Timer::initializeUs(unsigned int, Delegate<void ()>)
 *(.fini.literal)
 *(.fini)
 *(.gnu.version)
                0x40105802                _text_end = ABSOLUTE (.)
                0x40105802                _etext = .

.lit4           0x40105804        0x0
                0x40105804                _lit4_start = ABSOLUTE (.)
 *(*.lit4)
 *(.lit4.*)
 *(.gnu.linkonce.lit4.*)
                0x40105804                _lit4_end = ABSOLUTE (.)
                0x400047f0                PROVIDE (Cache_Read_Disable, 0x400047f0)
                0x40004678                PROVIDE (Cache_Read_Enable, 0x40004678)
                0x400035a0                PROVIDE (FilePacketSendReqMsgProc, 0x400035a0)
                0x4000368c                PROVIDE (FlashDwnLdParamCfgMsgProc, 0x4000368c)
                0x40003538                PROVIDE (FlashDwnLdStartMsgProc, 0x40003538)
                0x40003658                PROVIDE (FlashDwnLdStopReqMsgProc, 0x40003658)
                0x40003f4c                PROVIDE (GetUartDevice, 0x40003f4c)
                0x40009900                PROVIDE (MD5Final, 0x40009900)
                0x40009818                PROVIDE (MD5Init, 0x40009818)
                0x40009834                PROVIDE (MD5Update, 0x40009834)
                0x400036c4                PROVIDE (MemDwnLdStartMsgProc, 0x400036c4)
                0x4000377c                PROVIDE (MemDwnLdStopReqMsgProc, 0x4000377c)
                0x400036f0                PROVIDE (MemPacketSendReqMsgProc, 0x400036f0)
                0x40003eac                PROVIDE (RcvMsg, 0x40003eac)
                0x4000b648                PROVIDE (SHA1Final, 0x4000b648)
                0x4000b584                PROVIDE (SHA1Init, 0x4000b584)
                0x4000a364                PROVIDE (SHA1Transform, 0x4000a364)
                0x4000b5a8                PROVIDE (SHA1Update, 0x4000b5a8)
                0x400043c8                PROVIDE (SPI_read_status, 0x400043c8)
                0x40004400                PROVIDE (SPI_write_status, 0x40004400)
                0x4000443c                PROVIDE (SPI_write_enable, 0x4000443c)
                0x4000448c                PROVIDE (Wait_SPI_Idle, 0x4000448c)
                0x40004b44                PROVIDE (SPIEraseArea, 0x40004b44)
                0x400049b4                PROVIDE (SPIEraseBlock, 0x400049b4)
                0x40004984                PROVIDE (SPIEraseChip, 0x40004984)
                0x40004a00                PROVIDE (SPIEraseSector, 0x40004a00)
                0x400048a8                PROVIDE (SPILock, 0x400048a8)
                0x40004c2c                PROVIDE (SPIParamCfg, 0x40004c2c)
                0x40004b1c                PROVIDE (SPIRead, 0x40004b1c)
                0x400048ec                PROVIDE (SPIReadModeCnfig, 0x400048ec)
                0x40004878                PROVIDE (SPIUnlock, 0x40004878)
                0x40004a4c                PROVIDE (SPIWrite, 0x40004a4c)
                0x40003f58                PROVIDE (SelectSpiFunction, 0x40003f58)
                0x40003cf4                PROVIDE (SendMsg, 0x40003cf4)
                0x40003230                PROVIDE (UartConnCheck, 0x40003230)
                0x400037a0                PROVIDE (UartConnectProc, 0x400037a0)
                0x40003368                PROVIDE (UartDwnLdProc, 0x40003368)
                0x40003ef4                PROVIDE (UartGetCmdLn, 0x40003ef4)
                0x4000381c                PROVIDE (UartRegReadProc, 0x4000381c)
                0x400037ac                PROVIDE (UartRegWriteProc, 0x400037ac)
                0x40003c30                PROVIDE (UartRxString, 0x40003c30)
                0x40003a14                PROVIDE (Uart_Init, 0x40003a14)
                0x40000010                PROVIDE (_DebugExceptionVector, 0x40000010)
                0x40000070                PROVIDE (_DoubleExceptionVector, 0x40000070)
                0x40000030                PROVIDE (_KernelExceptionVector, 0x40000030)
                0x40000020                PROVIDE (_NMIExceptionVector, 0x40000020)
                0x400000a4                PROVIDE (_ResetHandler, 0x400000a4)
                0x40000080                PROVIDE (_ResetVector, 0x40000080)
                0x40000050                PROVIDE (_UserExceptionVector, 0x40000050)
                0x4000c538                PROVIDE (__adddf3, 0x4000c538)
                0x4000c180                PROVIDE (__addsf3, 0x4000c180)
                0x4000cb94                PROVIDE (__divdf3, 0x4000cb94)
                0x4000ce60                PROVIDE (__divdi3, 0x4000ce60)
                0x4000dc88                PROVIDE (__divsi3, 0x4000dc88)
                0x4000cdfc                PROVIDE (__extendsfdf2, 0x4000cdfc)
                0x4000ccb8                PROVIDE (__fixdfsi, 0x4000ccb8)
                0x4000cd00                PROVIDE (__fixunsdfsi, 0x4000cd00)
                0x4000c4c4                PROVIDE (__fixunssfsi, 0x4000c4c4)
                0x4000e2f0                PROVIDE (__floatsidf, 0x4000e2f0)
                0x4000e2ac                PROVIDE (__floatsisf, 0x4000e2ac)
                0x4000e2e8                PROVIDE (__floatunsidf, 0x4000e2e8)
                0x4000e2a4                PROVIDE (__floatunsisf, 0x4000e2a4)
                0x4000c8f0                PROVIDE (__muldf3, 0x4000c8f0)
                0x40000650                PROVIDE (__muldi3, 0x40000650)
                0x4000c3dc                PROVIDE (__mulsf3, 0x4000c3dc)
                0x4000c688                PROVIDE (__subdf3, 0x4000c688)
                0x4000c268                PROVIDE (__subsf3, 0x4000c268)
                0x4000cd5c                PROVIDE (__truncdfsf2, 0x4000cd5c)
                0x4000d310                PROVIDE (__udivdi3, 0x4000d310)
                0x4000e21c                PROVIDE (__udivsi3, 0x4000e21c)
                0x4000d770                PROVIDE (__umoddi3, 0x4000d770)
                0x4000e268                PROVIDE (__umodsi3, 0x4000e268)
                0x4000dcf0                PROVIDE (__umulsidi3, 0x4000dcf0)
                0x4000e388                PROVIDE (_rom_store, 0x4000e388)
                0x4000e328                PROVIDE (_rom_store_table, 0x4000e328)
                0x4000042c                PROVIDE (_start, 0x4000042c)
                0x4000dbe0                PROVIDE (_xtos_alloca_handler, 0x4000dbe0)
                0x40000598                PROVIDE (_xtos_c_wrapper_handler, 0x40000598)
                0x40000590                PROVIDE (_xtos_cause3_handler, 0x40000590)
                0x4000bda4                PROVIDE (_xtos_ints_off, 0x4000bda4)
                0x4000bd84                PROVIDE (_xtos_ints_on, 0x4000bd84)
                0x4000048c                PROVIDE (_xtos_l1int_handler, 0x4000048c)
                0x4000dbf8                PROVIDE (_xtos_p_none, 0x4000dbf8)
                0x4000056c                PROVIDE (_xtos_restore_intlevel, 0x4000056c)
                0x4000dc54                PROVIDE (_xtos_return_from_exc, 0x4000dc54)
                0x40000454                PROVIDE (_xtos_set_exception_handler, 0x40000454)
                0x4000bd70                PROVIDE (_xtos_set_interrupt_handler, 0x4000bd70)
                0x4000bd28                PROVIDE (_xtos_set_interrupt_handler_arg, 0x4000bd28)
                0x4000dbfc                PROVIDE (_xtos_set_intlevel, 0x4000dbfc)
                0x4000dc18                PROVIDE (_xtos_set_min_intlevel, 0x4000dc18)
                0x40000574                PROVIDE (_xtos_set_vpri, 0x40000574)
                0x4000dbe4                PROVIDE (_xtos_syscall_handler, 0x4000dbe4)
                0x4000dc44                PROVIDE (_xtos_unhandled_exception, 0x4000dc44)
                0x4000dc3c                PROVIDE (_xtos_unhandled_interrupt, 0x4000dc3c)
                0x400092d4                PROVIDE (aes_decrypt, 0x400092d4)
                0x400092e4                PROVIDE (aes_decrypt_deinit, 0x400092e4)
                0x40008ea4                PROVIDE (aes_decrypt_init, 0x40008ea4)
                0x40009410                PROVIDE (aes_unwrap, 0x40009410)
                0x40009648                PROVIDE (base64_decode, 0x40009648)
                0x400094fc                PROVIDE (base64_encode, 0x400094fc)
                0x4000de84                PROVIDE (bzero, 0x4000de84)
                0x40000814                PROVIDE (cmd_parse, 0x40000814)
                0x40000b24                PROVIDE (conv_str_decimal, 0x40000b24)
                0x40000cb8                PROVIDE (conv_str_hex, 0x40000cb8)
                0x40000a60                PROVIDE (convert_para_str, 0x40000a60)
                0x400026d0                PROVIDE (dtm_get_intr_mask, 0x400026d0)
                0x4000269c                PROVIDE (dtm_params_init, 0x4000269c)
                0x400026c8                PROVIDE (dtm_set_intr_mask, 0x400026c8)
                0x400026dc                PROVIDE (dtm_set_params, 0x400026dc)
                0x40001d14                PROVIDE (eprintf, 0x40001d14)
                0x40001cb8                PROVIDE (eprintf_init_buf, 0x40001cb8)
                0x40001d48                PROVIDE (eprintf_to_host, 0x40001d48)
                0x40002494                PROVIDE (est_get_printf_buf_remain_len, 0x40002494)
                0x4000249c                PROVIDE (est_reset_printf_buf_len, 0x4000249c)
                0x40002ae8                PROVIDE (ets_bzero, 0x40002ae8)
                0x40002b74                PROVIDE (ets_char2xdigit, 0x40002b74)
                0x40002ecc                PROVIDE (ets_delay_us, 0x40002ecc)
                0x400027b8                PROVIDE (ets_enter_sleep, 0x400027b8)
                0x40002578                PROVIDE (ets_external_printf, 0x40002578)
                0x40002f0c                PROVIDE (ets_get_cpu_frequency, 0x40002f0c)
                0x40002bcc                PROVIDE (ets_getc, 0x40002bcc)
                0x40002450                PROVIDE (ets_install_external_printf, 0x40002450)
                0x4000242c                PROVIDE (ets_install_putc1, 0x4000242c)
                0x4000248c                PROVIDE (ets_install_putc2, 0x4000248c)
                0x40002438                PROVIDE (ets_install_uart_printf, 0x40002438)
                0x40000f74                PROVIDE (ets_intr_lock, 0x40000f74)
                0x40000f80                PROVIDE (ets_intr_unlock, 0x40000f80)
                0x40000f88                PROVIDE (ets_isr_attach, 0x40000f88)
                0x40000f98                PROVIDE (ets_isr_mask, 0x40000f98)
                0x40000fa8                PROVIDE (ets_isr_unmask, 0x40000fa8)
                0x400018d4                PROVIDE (ets_memcmp, 0x400018d4)
                0x400018b4                PROVIDE (ets_memcpy, 0x400018b4)
                0x400018c4                PROVIDE (ets_memmove, 0x400018c4)
                0x400018a4                PROVIDE (ets_memset, 0x400018a4)
                0x40000e24                PROVIDE (ets_post, 0x40000e24)
                0x400024cc                PROVIDE (ets_printf, 0x400024cc)
                0x40002be8                PROVIDE (ets_putc, 0x40002be8)
                0x40002a40                PROVIDE (ets_rtc_int_register, 0x40002a40)
                0x40000e04                PROVIDE (ets_run, 0x40000e04)
                0x40000dc0                PROVIDE (ets_set_idle_cb, 0x40000dc0)
                0x40000fbc                PROVIDE (ets_set_user_start, 0x40000fbc)
                0x40002af8                PROVIDE (ets_str2macaddr, 0x40002af8)
                0x40002aa8                PROVIDE (ets_strcmp, 0x40002aa8)
                0x40002a88                PROVIDE (ets_strcpy, 0x40002a88)
                0x40002ac8                PROVIDE (ets_strlen, 0x40002ac8)
                0x40002ab8                PROVIDE (ets_strncmp, 0x40002ab8)
                0x40002a98                PROVIDE (ets_strncpy, 0x40002a98)
                0x40002ad8                PROVIDE (ets_strstr, 0x40002ad8)
                0x40000dd0                PROVIDE (ets_task, 0x40000dd0)
                0x40002cc4                PROVIDE (ets_timer_arm, 0x40002cc4)
                0x40002d40                PROVIDE (ets_timer_disarm, 0x40002d40)
                0x40002d80                PROVIDE (ets_timer_done, 0x40002d80)
                0x40002da8                PROVIDE (ets_timer_handler_isr, 0x40002da8)
                0x40002e68                PROVIDE (ets_timer_init, 0x40002e68)
                0x40002c48                PROVIDE (ets_timer_setfn, 0x40002c48)
                0x40002544                PROVIDE (ets_uart_printf, 0x40002544)
                0x40002f04                PROVIDE (ets_update_cpu_frequency, 0x40002f04)
                0x40001f00                PROVIDE (ets_vprintf, 0x40001f00)
                0x400030f0                PROVIDE (ets_wdt_disable, 0x400030f0)
                0x40002fa0                PROVIDE (ets_wdt_enable, 0x40002fa0)
                0x40002f34                PROVIDE (ets_wdt_get_mode, 0x40002f34)
                0x40003170                PROVIDE (ets_wdt_init, 0x40003170)
                0x40003158                PROVIDE (ets_wdt_restore, 0x40003158)
                0x40001da0                PROVIDE (ets_write_char, 0x40001da0)
                0x4000091c                PROVIDE (get_first_seg, 0x4000091c)
                0x40004c50                PROVIDE (gpio_init, 0x40004c50)
                0x40004cf0                PROVIDE (gpio_input_get, 0x40004cf0)
                0x40004dcc                PROVIDE (gpio_intr_ack, 0x40004dcc)
                0x40004e28                PROVIDE (gpio_intr_handler_register, 0x40004e28)
                0x40004d88                PROVIDE (gpio_intr_pending, 0x40004d88)
                0x40004efc                PROVIDE (gpio_intr_test, 0x40004efc)
                0x40004cd0                PROVIDE (gpio_output_set, 0x40004cd0)
                0x40004d90                PROVIDE (gpio_pin_intr_state_set, 0x40004d90)
                0x40004ed4                PROVIDE (gpio_pin_wakeup_disable, 0x40004ed4)
                0x40004e90                PROVIDE (gpio_pin_wakeup_enable, 0x40004e90)
                0x40004d5c                PROVIDE (gpio_register_get, 0x40004d5c)
                0x40004d04                PROVIDE (gpio_register_set, 0x40004d04)
                0x4000a2cc                PROVIDE (hmac_md5, 0x4000a2cc)
                0x4000a160                PROVIDE (hmac_md5_vector, 0x4000a160)
                0x4000ba28                PROVIDE (hmac_sha1, 0x4000ba28)
                0x4000b8b4                PROVIDE (hmac_sha1_vector, 0x4000b8b4)
                0x40004f40                PROVIDE (lldesc_build_chain, 0x40004f40)
                0x40005050                PROVIDE (lldesc_num2link, 0x40005050)
                0x4000507c                PROVIDE (lldesc_set_owner, 0x4000507c)
                0x40000fec                PROVIDE (main, 0x40000fec)
                0x400097ac                PROVIDE (md5_vector, 0x400097ac)
                0x40001c2c                PROVIDE (mem_calloc, 0x40001c2c)
                0x400019e0                PROVIDE (mem_free, 0x400019e0)
                0x40001998                PROVIDE (mem_init, 0x40001998)
                0x40001b40                PROVIDE (mem_malloc, 0x40001b40)
                0x40001c6c                PROVIDE (mem_realloc, 0x40001c6c)
                0x40001a14                PROVIDE (mem_trim, 0x40001a14)
                0x40001c58                PROVIDE (mem_zalloc, 0x40001c58)
                0x4000dea8                PROVIDE (memcmp, 0x4000dea8)
                0x4000df48                PROVIDE (memcpy, 0x4000df48)
                0x4000e04c                PROVIDE (memmove, 0x4000e04c)
                0x4000e190                PROVIDE (memset, 0x4000e190)
                0x400031c0                PROVIDE (multofup, 0x400031c0)
                0x4000b840                PROVIDE (pbkdf2_sha1, 0x4000b840)
                0x40006b08                PROVIDE (phy_get_romfuncs, 0x40006b08)
                0x40000600                PROVIDE (rand, 0x40000600)
                0x4000dd68                PROVIDE (rc4_skip, 0x4000dd68)
                0x40003d08                PROVIDE (recv_packet, 0x40003d08)
                0x40000a04                PROVIDE (remove_head_space, 0x40000a04)
                0x40008dd0                PROVIDE (rijndaelKeySetupDec, 0x40008dd0)
                0x40009300                PROVIDE (rijndaelKeySetupEnc, 0x40009300)
                0x400060c0                PROVIDE (rom_abs_temp, 0x400060c0)
                0x40006b10                PROVIDE (rom_ana_inf_gating_en, 0x40006b10)
                0x40007a28                PROVIDE (rom_cal_tos_v50, 0x40007a28)
                0x40006f84                PROVIDE (rom_chip_50_set_channel, 0x40006f84)
                0x400060d0                PROVIDE (rom_chip_v5_disable_cca, 0x400060d0)
                0x400060ec                PROVIDE (rom_chip_v5_enable_cca, 0x400060ec)
                0x4000711c                PROVIDE (rom_chip_v5_rx_init, 0x4000711c)
                0x4000610c                PROVIDE (rom_chip_v5_sense_backoff, 0x4000610c)
                0x4000718c                PROVIDE (rom_chip_v5_tx_init, 0x4000718c)
                0x4000615c                PROVIDE (rom_dc_iq_est, 0x4000615c)
                0x400061b8                PROVIDE (rom_en_pwdet, 0x400061b8)
                0x40006238                PROVIDE (rom_get_bb_atten, 0x40006238)
                0x40006260                PROVIDE (rom_get_corr_power, 0x40006260)
                0x400062dc                PROVIDE (rom_get_fm_sar_dout, 0x400062dc)
                0x40006394                PROVIDE (rom_get_noisefloor, 0x40006394)
                0x400063b0                PROVIDE (rom_get_power_db, 0x400063b0)
                0x40007268                PROVIDE (rom_i2c_readReg, 0x40007268)
                0x4000729c                PROVIDE (rom_i2c_readReg_Mask, 0x4000729c)
                0x400072d8                PROVIDE (rom_i2c_writeReg, 0x400072d8)
                0x4000730c                PROVIDE (rom_i2c_writeReg_Mask, 0x4000730c)
                0x40006400                PROVIDE (rom_iq_est_disable, 0x40006400)
                0x40006430                PROVIDE (rom_iq_est_enable, 0x40006430)
                0x40006484                PROVIDE (rom_linear_to_db, 0x40006484)
                0x400065a4                PROVIDE (rom_mhz2ieee, 0x400065a4)
                0x40007bf0                PROVIDE (rom_pbus_dco___SA2, 0x40007bf0)
                0x4000737c                PROVIDE (rom_pbus_debugmode, 0x4000737c)
                0x40007410                PROVIDE (rom_pbus_enter_debugmode, 0x40007410)
                0x40007448                PROVIDE (rom_pbus_exit_debugmode, 0x40007448)
                0x4000747c                PROVIDE (rom_pbus_force_test, 0x4000747c)
                0x400074d8                PROVIDE (rom_pbus_rd, 0x400074d8)
                0x4000754c                PROVIDE (rom_pbus_set_rxgain, 0x4000754c)
                0x40007610                PROVIDE (rom_pbus_set_txgain, 0x40007610)
                0x40007648                PROVIDE (rom_pbus_workmode, 0x40007648)
                0x40007688                PROVIDE (rom_pbus_xpd_rx_off, 0x40007688)
                0x400076cc                PROVIDE (rom_pbus_xpd_rx_on, 0x400076cc)
                0x400076fc                PROVIDE (rom_pbus_xpd_tx_off, 0x400076fc)
                0x40007740                PROVIDE (rom_pbus_xpd_tx_on, 0x40007740)
                0x400077a0                PROVIDE (rom_pbus_xpd_tx_on__low_gain, 0x400077a0)
                0x40007804                PROVIDE (rom_phy_reset_req, 0x40007804)
                0x4000781c                PROVIDE (rom_restart_cal, 0x4000781c)
                0x40007eb4                PROVIDE (rom_rfcal_pwrctrl, 0x40007eb4)
                0x4000804c                PROVIDE (rom_rfcal_rxiq, 0x4000804c)
                0x40008264                PROVIDE (rom_rfcal_rxiq_set_reg, 0x40008264)
                0x40008388                PROVIDE (rom_rfcal_txcap, 0x40008388)
                0x40008610                PROVIDE (rom_rfcal_txiq, 0x40008610)
                0x400088b8                PROVIDE (rom_rfcal_txiq_cover, 0x400088b8)
                0x40008a70                PROVIDE (rom_rfcal_txiq_set_reg, 0x40008a70)
                0x40007868                PROVIDE (rom_rfpll_reset, 0x40007868)
                0x40007968                PROVIDE (rom_rfpll_set_freq, 0x40007968)
                0x40008b6c                PROVIDE (rom_rxiq_cover_mg_mp, 0x40008b6c)
                0x40006628                PROVIDE (rom_rxiq_get_mis, 0x40006628)
                0x40006738                PROVIDE (rom_sar_init, 0x40006738)
                0x4000678c                PROVIDE (rom_set_ana_inf_tx_scale, 0x4000678c)
                0x40006c50                PROVIDE (rom_set_channel_freq, 0x40006c50)
                0x400067c8                PROVIDE (rom_set_loopback_gain, 0x400067c8)
                0x40006830                PROVIDE (rom_set_noise_floor, 0x40006830)
                0x40006550                PROVIDE (rom_set_rxclk_en, 0x40006550)
                0x40008c6c                PROVIDE (rom_set_txbb_atten, 0x40008c6c)
                0x4000650c                PROVIDE (rom_set_txclk_en, 0x4000650c)
                0x40008d34                PROVIDE (rom_set_txiq_cal, 0x40008d34)
                0x40006874                PROVIDE (rom_start_noisefloor, 0x40006874)
                0x400068b4                PROVIDE (rom_start_tx_tone, 0x400068b4)
                0x4000698c                PROVIDE (rom_stop_tx_tone, 0x4000698c)
                0x40006a98                PROVIDE (rom_tx_mac_disable, 0x40006a98)
                0x40006ad4                PROVIDE (rom_tx_mac_enable, 0x40006ad4)
                0x40006a1c                PROVIDE (rom_txtone_linear_pwr, 0x40006a1c)
                0x400078dc                PROVIDE (rom_write_rfpll_sdm, 0x400078dc)
                0x400031b4                PROVIDE (roundup2, 0x400031b4)
                0x40002870                PROVIDE (rtc_enter_sleep, 0x40002870)
                0x400025e0                PROVIDE (rtc_get_reset_reason, 0x400025e0)
                0x400029ec                PROVIDE (rtc_intr_handler, 0x400029ec)
                0x40002668                PROVIDE (rtc_set_sleep_mode, 0x40002668)
                0x400027a4                PROVIDE (save_rxbcn_mactime, 0x400027a4)
                0x400027ac                PROVIDE (save_tsf_us, 0x400027ac)
                0x40003c80                PROVIDE (send_packet, 0x40003c80)
                0x4000ba48                PROVIDE (sha1_prf, 0x4000ba48)
                0x4000a2ec                PROVIDE (sha1_vector, 0x4000a2ec)
                0x40005180                PROVIDE (sip_alloc_to_host_evt, 0x40005180)
                0x400058a8                PROVIDE (sip_get_ptr, 0x400058a8)
                0x40005668                PROVIDE (sip_get_state, 0x40005668)
                0x4000567c                PROVIDE (sip_init_attach, 0x4000567c)
                0x4000544c                PROVIDE (sip_install_rx_ctrl_cb, 0x4000544c)
                0x4000545c                PROVIDE (sip_install_rx_data_cb, 0x4000545c)
                0x400050fc                PROVIDE (sip_post, 0x400050fc)
                0x400056c4                PROVIDE (sip_post_init, 0x400056c4)
                0x4000534c                PROVIDE (sip_reclaim_from_host_cmd, 0x4000534c)
                0x400052c0                PROVIDE (sip_reclaim_tx_data_pkt, 0x400052c0)
                0x40005808                PROVIDE (sip_send, 0x40005808)
                0x40005864                PROVIDE (sip_to_host_chain_append, 0x40005864)
                0x40005234                PROVIDE (sip_to_host_evt_send_done, 0x40005234)
                0x400060ac                PROVIDE (slc_add_credits, 0x400060ac)
                0x40005d90                PROVIDE (slc_enable, 0x40005d90)
                0x40005f24                PROVIDE (slc_from_host_chain_fetch, 0x40005f24)
                0x40005e94                PROVIDE (slc_from_host_chain_recycle, 0x40005e94)
                0x40005c50                PROVIDE (slc_init_attach, 0x40005c50)
                0x4000608c                PROVIDE (slc_init_credit, 0x4000608c)
                0x40006014                PROVIDE (slc_pause_from_host, 0x40006014)
                0x40005c1c                PROVIDE (slc_reattach, 0x40005c1c)
                0x4000603c                PROVIDE (slc_resume_from_host, 0x4000603c)
                0x40005dc0                PROVIDE (slc_select_tohost_gpio, 0x40005dc0)
                0x40005db8                PROVIDE (slc_select_tohost_gpio_mode, 0x40005db8)
                0x40005de4                PROVIDE (slc_send_to_host_chain, 0x40005de4)
                0x40006068                PROVIDE (slc_set_host_io_max_window, 0x40006068)
                0x40005f10                PROVIDE (slc_to_host_chain_recycle, 0x40005f10)
                0x4000264c                PROVIDE (software_reset, 0x4000264c)
                0x40004644                PROVIDE (spi_flash_attach, 0x40004644)
                0x400005f0                PROVIDE (srand, 0x400005f0)
                0x4000bdc8                PROVIDE (strcmp, 0x4000bdc8)
                0x4000bec8                PROVIDE (strcpy, 0x4000bec8)
                0x4000bf4c                PROVIDE (strlen, 0x4000bf4c)
                0x4000bfa8                PROVIDE (strncmp, 0x4000bfa8)
                0x4000c0a0                PROVIDE (strncpy, 0x4000c0a0)
                0x4000e1e0                PROVIDE (strstr, 0x4000e1e0)
                0x40002c64                PROVIDE (timer_insert, 0x40002c64)
                0x4000383c                PROVIDE (uartAttach, 0x4000383c)
                0x40003924                PROVIDE (uart_baudrate_detect, 0x40003924)
                0x400038a4                PROVIDE (uart_buff_switch, 0x400038a4)
                0x400039d8                PROVIDE (uart_div_modify, 0x400039d8)
                0x40003bbc                PROVIDE (uart_rx_intr_handler, 0x40003bbc)
                0x40003b8c                PROVIDE (uart_rx_one_char, 0x40003b8c)
                0x40003b64                PROVIDE (uart_rx_one_char_block, 0x40003b64)
                0x40003ec8                PROVIDE (uart_rx_readbuff, 0x40003ec8)
                0x40003b30                PROVIDE (uart_tx_one_char, 0x40003b30)
                0x4000bc40                PROVIDE (wepkey_128, 0x4000bc40)
                0x4000bb3c                PROVIDE (wepkey_64, 0x4000bb3c)
                0x40000688                PROVIDE (xthal_bcopy, 0x40000688)
                0x4000074c                PROVIDE (xthal_copy123, 0x4000074c)
                0x4000dd4c                PROVIDE (xthal_get_ccompare, 0x4000dd4c)
                0x4000dd38                PROVIDE (xthal_get_ccount, 0x4000dd38)
                0x4000dd58                PROVIDE (xthal_get_interrupt, 0x4000dd58)
                0x4000dd58                PROVIDE (xthal_get_intread, 0x4000dd58)
                0x400006c4                PROVIDE (xthal_memcpy, 0x400006c4)
                0x4000dd40                PROVIDE (xthal_set_ccompare, 0x4000dd40)
                0x4000dd60                PROVIDE (xthal_set_intclear, 0x4000dd60)
                0x4000e320                PROVIDE (xthal_spill_registers_into_stack_nw, 0x4000e320)
                0x4000e324                PROVIDE (xthal_window_spill, 0x4000e324)
                0x4000e320                PROVIDE (xthal_window_spill_nw, 0x4000e320)
                0x3fffccf0                PROVIDE (Te0, 0x3fffccf0)
                0x3fffd100                PROVIDE (Td0, 0x3fffd100)
                0x3fffd500                PROVIDE (Td4s, 0x3fffd500)
                0x3fffd0f0                PROVIDE (rcons, 0x3fffd0f0)
                0x3fffde10                PROVIDE (UartDev, 0x3fffde10)
                0x3fffc714                PROVIDE (flashchip, 0x3fffc714)
OUTPUT(out/build/app.out elf32-xtensa-le)

.xtensa.info    0x00000000       0x38
 .xtensa.info   0x00000000       0x38 c:/Espressif/ESP8266_SDK/lib\libmain.a(debug-vector.o)
 .xtensa.info   0x00000000        0x0 c:/Espressif/ESP8266_SDK/lib\libmain.a(double-vector.o)
 .xtensa.info   0x00000000        0x0 c:/Espressif/ESP8266_SDK/lib\libmain.a(kernel-vector.o)
 .xtensa.info   0x00000000        0x0 c:/Espressif/ESP8266_SDK/lib\libmain.a(nmi-vector.o)
 .xtensa.info   0x00000000        0x0 c:/Espressif/ESP8266_SDK/lib\libmain.a(user-vector.o)
 .xtensa.info   0x00000000        0x0 c:/Espressif/ESP8266_SDK/lib\libmain.a(vector.o)
 .xtensa.info   0x00000000        0x0 c:/Espressif/ESP8266_SDK/lib\libmain.a(app_main.o)
 .xtensa.info   0x00000000        0x0 c:/Espressif/ESP8266_SDK/lib\libmain.a(ets_timer.o)
 .xtensa.info   0x00000000        0x0 c:/Espressif/ESP8266_SDK/lib\libmain.a(mem_manager.o)
 .xtensa.info   0x00000000        0x0 c:/Espressif/ESP8266_SDK/lib\libmain.a(spi_flash.o)
 .xtensa.info   0x00000000        0x0 c:/Espressif/ESP8266_SDK/lib\libmain.a(user_interface.o)
 .xtensa.info   0x00000000        0x0 c:/Espressif/ESP8266_SDK/lib\libmain.a(eagle_lib.o)
 .xtensa.info   0x00000000        0x0 c:/Espressif/ESP8266_SDK/lib\libmain.a(eagle_lwip_if.o)
 .xtensa.info   0x00000000        0x0 c:/tools/sming/Sming/compiler/lib/\libsming.a(user_main.o)
 .xtensa.info   0x00000000        0x0 c:/tools/sming/Sming/compiler/lib/\libsming.a(System.o)
 .xtensa.info   0x00000000        0x0 c:/tools/sming/Sming/compiler/lib/\libsming.a(esp_cplusplus.o)
 .xtensa.info   0x00000000        0x0 c:/tools/sming/Sming/compiler/lib/\libsming.a(m_printf.o)
 .xtensa.info   0x00000000        0x0 c:/tools/sming/Sming/compiler/lib/\libsming.a(stringconversion.o)
 .xtensa.info   0x00000000        0x0 c:/tools/sming/Sming/compiler/lib/\libsming.a(IPAddress.o)
 .xtensa.info   0x00000000        0x0 c:/tools/sming/Sming/compiler/lib/\libsming.a(Print.o)
 .xtensa.info   0x00000000        0x0 c:/tools/sming/Sming/compiler/lib/\libsming.a(WString.o)
 .xtensa.info   0x00000000        0x0 c:/tools/sming/Sming/compiler/lib/\libsming.a(Interrupts.o)
 .xtensa.info   0x00000000        0x0 c:/tools/sming/Sming/compiler/lib/\libsming.a(Digital.o)
 .xtensa.info   0x00000000        0x0 out/build/app_app.a(application.o)
 .xtensa.info   0x00000000        0x0 c:/tools/sming/Sming/compiler/lib/\libmicroc.a(isspace.o)
 .xtensa.info   0x00000000        0x0 c:/tools/sming/Sming/compiler/lib/\libmicroc.a(tolower.o)
 .xtensa.info   0x00000000        0x0 c:/tools/sming/Sming/compiler/lib/\libmicroc.a(toupper.o)
 .xtensa.info   0x00000000        0x0 c:/tools/sming/Sming/compiler/lib/\libmicroc.a(atof.o)
 .xtensa.info   0x00000000        0x0 c:/tools/sming/Sming/compiler/lib/\libmicroc.a(atoi.o)
 .xtensa.info   0x00000000        0x0 c:/tools/sming/Sming/compiler/lib/\libmicroc.a(strtod.o)
 .xtensa.info   0x00000000        0x0 c:/tools/sming/Sming/compiler/lib/\libmicroc.a(__fpclassify.o)
 .xtensa.info   0x00000000        0x0 c:/tools/sming/Sming/compiler/lib/\libmicroc.a(strchr.o)
 .xtensa.info   0x00000000        0x0 c:/tools/sming/Sming/compiler/lib/\libmicroc.a(strrchr.o)
 .xtensa.info   0x00000000        0x0 c:/tools/sming/Sming/compiler/lib/\libmicroc.a(strchrnul.o)
 .xtensa.info   0x00000000        0x0 c:/tools/sming/Sming/compiler/lib/\libmicroc.a(malloc.o)
 .xtensa.info   0x00000000        0x0 c:/tools/sming/Sming/compiler/lib/\libmicroc.a(abort.o)
 .xtensa.info   0x00000000        0x0 c:/tools/sming/Sming/compiler/lib/\libmicroc.a(floatscan.o)
 .xtensa.info   0x00000000        0x0 c:/tools/sming/Sming/compiler/lib/\libmicroc.a(shgetc.o)
 .xtensa.info   0x00000000        0x0 c:/tools/sming/Sming/compiler/lib/\libmicroc.a(__uflow.o)
 .xtensa.info   0x00000000        0x0 c:/tools/sming/Sming/compiler/lib/\libmicroc.a(__toread.o)
 .xtensa.info   0x00000000        0x0 c:/tools/sming/Sming/compiler/lib/\libmicroc.a(__stdio_exit.o)
 .xtensa.info   0x00000000        0x0 c:/tools/sming/Sming/compiler/lib/\libmicroc.a(fmodl.o)
 .xtensa.info   0x00000000        0x0 c:/tools/sming/Sming/compiler/lib/\libmicroc.a(scalbn.o)
 .xtensa.info   0x00000000        0x0 c:/tools/sming/Sming/compiler/lib/\libmicroc.a(scalbnl.o)
 .xtensa.info   0x00000000        0x0 c:/tools/sming/Sming/compiler/lib/\libmicroc.a(__errno_location.o)
 .xtensa.info   0x00000000        0x0 c:/tools/sming/Sming/compiler/lib/\libmicroc.a(fmod.o)
 .xtensa.info   0x00000000        0x0 c:/tools/sming/Sming/compiler/lib/\libmicrogcc.a(_ashldi3.o)
 .xtensa.info   0x00000000        0x0 c:/tools/sming/Sming/compiler/lib/\libmicrogcc.a(_cmpdf2.o)
 .xtensa.info   0x00000000        0x0 c:/tools/sming/Sming/compiler/lib/\libmicrogcc.a(_lshrdi3.o)
 .xtensa.info   0x00000000        0x0 c:/tools/sming/Sming/compiler/lib/\libmicrogcc.a(_modsi3.o)
 .xtensa.info   0x00000000        0x0 c:/espressif/xtensa-lx106-elf/bin/../lib/gcc/xtensa-lx106-elf/5.1.0/../../../../xtensa-lx106-elf/lib\libhal.a(int_asm--set_intclear.o)
 .xtensa.info   0x00000000        0x0 c:/Espressif/ESP8266_SDK/lib\libphy.a(phy.o)
 .xtensa.info   0x00000000        0x0 c:/Espressif/ESP8266_SDK/lib\libphy.a(phy_chip_v6_ana.o)
 .xtensa.info   0x00000000        0x0 c:/Espressif/ESP8266_SDK/lib\libphy.a(phy_chip_v6.o)
 .xtensa.info   0x00000000        0x0 c:/Espressif/ESP8266_SDK/lib\libphy.a(phy_chip_v6_cal.o)
 .xtensa.info   0x00000000        0x0 c:/Espressif/ESP8266_SDK/lib\libphy.a(phy_chip_v6_unused.o)
 .xtensa.info   0x00000000        0x0 c:/Espressif/ESP8266_SDK/lib\libphy.a(phy_sleep.o)
 .xtensa.info   0x00000000        0x0 c:/Espressif/ESP8266_SDK/lib\libpp.a(if_hwctrl.o)
 .xtensa.info   0x00000000        0x0 c:/Espressif/ESP8266_SDK/lib\libpp.a(lmac.o)
 .xtensa.info   0x00000000        0x0 c:/Espressif/ESP8266_SDK/lib\libpp.a(pm.o)
 .xtensa.info   0x00000000        0x0 c:/Espressif/ESP8266_SDK/lib\libpp.a(pm_for_bcn_only_mode.o)
 .xtensa.info   0x00000000        0x0 c:/Espressif/ESP8266_SDK/lib\libpp.a(pp.o)
 .xtensa.info   0x00000000        0x0 c:/Espressif/ESP8266_SDK/lib\libpp.a(rate_control.o)
 .xtensa.info   0x00000000        0x0 c:/Espressif/ESP8266_SDK/lib\libpp.a(trc.o)
 .xtensa.info   0x00000000        0x0 c:/Espressif/ESP8266_SDK/lib\libpp.a(wdev.o)
 .xtensa.info   0x00000000        0x0 c:/Espressif/ESP8266_SDK/lib\libpp.a(esf_buf.o)
 .xtensa.info   0x00000000        0x0 c:/Espressif/ESP8266_SDK/lib\libnet80211.a(ieee80211.o)
 .xtensa.info   0x00000000        0x0 c:/Espressif/ESP8266_SDK/lib\libnet80211.a(ieee80211_crypto.o)
 .xtensa.info   0x00000000        0x0 c:/Espressif/ESP8266_SDK/lib\libnet80211.a(ieee80211_ets.o)
 .xtensa.info   0x00000000        0x0 c:/Espressif/ESP8266_SDK/lib\libnet80211.a(ieee80211_hostap.o)
 .xtensa.info   0x00000000        0x0 c:/Espressif/ESP8266_SDK/lib\libnet80211.a(ieee80211_ht.o)
 .xtensa.info   0x00000000        0x0 c:/Espressif/ESP8266_SDK/lib\libnet80211.a(ieee80211_input.o)
 .xtensa.info   0x00000000        0x0 c:/Espressif/ESP8266_SDK/lib\libnet80211.a(ieee80211_mesh_quick.o)
 .xtensa.info   0x00000000        0x0 c:/Espressif/ESP8266_SDK/lib\libnet80211.a(ieee80211_output.o)
 .xtensa.info   0x00000000        0x0 c:/Espressif/ESP8266_SDK/lib\libnet80211.a(ieee80211_phy.o)
 .xtensa.info   0x00000000        0x0 c:/Espressif/ESP8266_SDK/lib\libnet80211.a(ieee80211_power.o)
 .xtensa.info   0x00000000        0x0 c:/Espressif/ESP8266_SDK/lib\libnet80211.a(ieee80211_proto.o)
 .xtensa.info   0x00000000        0x0 c:/Espressif/ESP8266_SDK/lib\libnet80211.a(ieee80211_rfid.o)
 .xtensa.info   0x00000000        0x0 c:/Espressif/ESP8266_SDK/lib\libnet80211.a(ieee80211_scan.o)
 .xtensa.info   0x00000000        0x0 c:/Espressif/ESP8266_SDK/lib\libnet80211.a(ieee80211_sta.o)
 .xtensa.info   0x00000000        0x0 c:/Espressif/ESP8266_SDK/lib\libnet80211.a(wl_chm.o)
 .xtensa.info   0x00000000        0x0 c:/Espressif/ESP8266_SDK/lib\libnet80211.a(wl_cnx.o)
 .xtensa.info   0x00000000        0x0 c:/Espressif/ESP8266_SDK/lib\libnet80211.a(ieee80211_action.o)
 .xtensa.info   0x00000000        0x0 c:/Espressif/ESP8266_SDK/lib\libnet80211.a(ieee80211_action_vendor.o)
 .xtensa.info   0x00000000        0x0 c:/Espressif/ESP8266_SDK/lib\libnet80211.a(ieee80211_crypto_ccmp.o)
 .xtensa.info   0x00000000        0x0 c:/Espressif/ESP8266_SDK/lib\libnet80211.a(ieee80211_ie_vendor.o)
 .xtensa.info   0x00000000        0x0 c:/Espressif/ESP8266_SDK/lib\liblwip.a(dhcp.o)
 .xtensa.info   0x00000000        0x0 c:/Espressif/ESP8266_SDK/lib\liblwip.a(dhcpserver.o)
 .xtensa.info   0x00000000        0x0 c:/Espressif/ESP8266_SDK/lib\liblwip.a(dns.o)
 .xtensa.info   0x00000000        0x0 c:/Espressif/ESP8266_SDK/lib\liblwip.a(espconn_tcp.o)
 .xtensa.info   0x00000000        0x0 c:/Espressif/ESP8266_SDK/lib\liblwip.a(etharp.o)
 .xtensa.info   0x00000000        0x0 c:/Espressif/ESP8266_SDK/lib\liblwip.a(init.o)
 .xtensa.info   0x00000000        0x0 c:/Espressif/ESP8266_SDK/lib\liblwip.a(ip_addr.o)
 .xtensa.info   0x00000000        0x0 c:/Espressif/ESP8266_SDK/lib\liblwip.a(ip.o)
 .xtensa.info   0x00000000        0x0 c:/Espressif/ESP8266_SDK/lib\liblwip.a(memp.o)
 .xtensa.info   0x00000000        0x0 c:/Espressif/ESP8266_SDK/lib\liblwip.a(netif.o)
 .xtensa.info   0x00000000        0x0 c:/Espressif/ESP8266_SDK/lib\liblwip.a(pbuf.o)
 .xtensa.info   0x00000000        0x0 c:/Espressif/ESP8266_SDK/lib\liblwip.a(raw.o)
 .xtensa.info   0x00000000        0x0 c:/Espressif/ESP8266_SDK/lib\liblwip.a(tcp_in.o)
 .xtensa.info   0x00000000        0x0 c:/Espressif/ESP8266_SDK/lib\liblwip.a(tcp.o)
 .xtensa.info   0x00000000        0x0 c:/Espressif/ESP8266_SDK/lib\liblwip.a(tcp_out.o)
 .xtensa.info   0x00000000        0x0 c:/Espressif/ESP8266_SDK/lib\liblwip.a(timers.o)
 .xtensa.info   0x00000000        0x0 c:/Espressif/ESP8266_SDK/lib\liblwip.a(udp.o)
 .xtensa.info   0x00000000        0x0 c:/Espressif/ESP8266_SDK/lib\liblwip.a(espconn.o)
 .xtensa.info   0x00000000        0x0 c:/Espressif/ESP8266_SDK/lib\liblwip.a(espconn_udp.o)
 .xtensa.info   0x00000000        0x0 c:/Espressif/ESP8266_SDK/lib\liblwip.a(icmp.o)
 .xtensa.info   0x00000000        0x0 c:/Espressif/ESP8266_SDK/lib\liblwip.a(igmp.o)
 .xtensa.info   0x00000000        0x0 c:/Espressif/ESP8266_SDK/lib\liblwip.a(inet_chksum.o)
 .xtensa.info   0x00000000        0x0 c:/Espressif/ESP8266_SDK/lib\libwpa.a(ap_config.o)
 .xtensa.info   0x00000000        0x0 c:/Espressif/ESP8266_SDK/lib\libwpa.a(common.o)
 .xtensa.info   0x00000000        0x0 c:/Espressif/ESP8266_SDK/lib\libwpa.a(os_xtensa.o)
 .xtensa.info   0x00000000        0x0 c:/Espressif/ESP8266_SDK/lib\libwpa.a(wpa_auth.o)
 .xtensa.info   0x00000000        0x0 c:/Espressif/ESP8266_SDK/lib\libwpa.a(wpa_auth_ie.o)
 .xtensa.info   0x00000000        0x0 c:/Espressif/ESP8266_SDK/lib\libwpa.a(wpa.o)
 .xtensa.info   0x00000000        0x0 c:/Espressif/ESP8266_SDK/lib\libwpa.a(wpa_common.o)
 .xtensa.info   0x00000000        0x0 c:/Espressif/ESP8266_SDK/lib\libwpa.a(wpa_debug.o)
 .xtensa.info   0x00000000        0x0 c:/Espressif/ESP8266_SDK/lib\libwpa.a(wpa_ie.o)
 .xtensa.info   0x00000000        0x0 c:/Espressif/ESP8266_SDK/lib\libwpa.a(wpa_main.o)
 .xtensa.info   0x00000000        0x0 c:/Espressif/ESP8266_SDK/lib\libwpa.a(wpas_glue.o)
 .xtensa.info   0x00000000        0x0 c:/tools/sming/Sming/compiler/lib/\libsming.a(Timer.o)
 .xtensa.info   0x00000000        0x0 c:/Espressif/ESP8266_SDK/lib\libcrypto.a(aes-wrap.o)
 .xtensa.info   0x00000000        0x0 c:/Espressif/ESP8266_SDK/lib\libcrypto.a(aes-internal-enc.o)
 .xtensa.info   0x00000000        0x0 c:/Espressif/ESP8266_SDK/lib\libcrypto.a(aes-internal.o)
 .xtensa.info   0x00000000        0x0 c:/tools/sming/Sming/compiler/lib/\libmicrogcc.a(_ashrdi3.o)
 .xtensa.info   0x00000000        0x0 c:/tools/sming/Sming/compiler/lib/\libmicrogcc.a(_divsf3.o)
 .xtensa.info   0x00000000        0x0 c:/tools/sming/Sming/compiler/lib/\libmicrogcc.a(_fixsfsi.o)
 .xtensa.info   0x00000000        0x0 c:/Espressif/ESP8266_SDK/lib\libnet80211.a(ieee80211_crypto_tkip.o)
 .xtensa.info   0x00000000        0x0 c:/Espressif/ESP8266_SDK/lib\libnet80211.a(ieee80211_crypto_wep.o)

.comment        0x00000000     0x1aed
 .comment       0x00000000       0x55 c:/Espressif/ESP8266_SDK/lib\libmain.a(app_main.o)
                                 0x56 (size before relaxing)
 .comment       0x00000055       0x56 c:/Espressif/ESP8266_SDK/lib\libmain.a(ets_timer.o)
                                 0x57 (size before relaxing)
 .comment       0x000000ab       0x58 c:/Espressif/ESP8266_SDK/lib\libmain.a(mem_manager.o)
                                 0x59 (size before relaxing)
 .comment       0x00000103       0x56 c:/Espressif/ESP8266_SDK/lib\libmain.a(spi_flash.o)
                                 0x57 (size before relaxing)
 .comment       0x00000159       0x5b c:/Espressif/ESP8266_SDK/lib\libmain.a(user_interface.o)
                                 0x5c (size before relaxing)
 .comment       0x000001b4       0x56 c:/Espressif/ESP8266_SDK/lib\libmain.a(eagle_lib.o)
                                 0x57 (size before relaxing)
 .comment       0x0000020a       0x5a c:/Espressif/ESP8266_SDK/lib\libmain.a(eagle_lwip_if.o)
                                 0x5b (size before relaxing)
 .comment       0x00000264       0x11 c:/tools/sming/Sming/compiler/lib/\libsming.a(user_main.o)
                                 0x12 (size before relaxing)
 .comment       0x00000000       0x12 c:/tools/sming/Sming/compiler/lib/\libsming.a(System.o)
 .comment       0x00000000       0x12 c:/tools/sming/Sming/compiler/lib/\libsming.a(esp_cplusplus.o)
 .comment       0x00000000       0x12 c:/tools/sming/Sming/compiler/lib/\libsming.a(m_printf.o)
 .comment       0x00000000       0x12 c:/tools/sming/Sming/compiler/lib/\libsming.a(stringconversion.o)
 .comment       0x00000000       0x12 c:/tools/sming/Sming/compiler/lib/\libsming.a(IPAddress.o)
 .comment       0x00000000       0x12 c:/tools/sming/Sming/compiler/lib/\libsming.a(Print.o)
 .comment       0x00000000       0x12 c:/tools/sming/Sming/compiler/lib/\libsming.a(WString.o)
 .comment       0x00000000       0x12 c:/tools/sming/Sming/compiler/lib/\libsming.a(Interrupts.o)
 .comment       0x00000000       0x12 c:/tools/sming/Sming/compiler/lib/\libsming.a(Digital.o)
 .comment       0x00000000       0x12 out/build/app_app.a(application.o)
 .comment       0x00000275       0x11 c:/tools/sming/Sming/compiler/lib/\libmicroc.a(isspace.o)
                                 0x12 (size before relaxing)
 .comment       0x00000000       0x12 c:/tools/sming/Sming/compiler/lib/\libmicroc.a(tolower.o)
 .comment       0x00000000       0x12 c:/tools/sming/Sming/compiler/lib/\libmicroc.a(toupper.o)
 .comment       0x00000000       0x12 c:/tools/sming/Sming/compiler/lib/\libmicroc.a(atof.o)
 .comment       0x00000000       0x12 c:/tools/sming/Sming/compiler/lib/\libmicroc.a(atoi.o)
 .comment       0x00000000       0x12 c:/tools/sming/Sming/compiler/lib/\libmicroc.a(strtod.o)
 .comment       0x00000000       0x12 c:/tools/sming/Sming/compiler/lib/\libmicroc.a(__fpclassify.o)
 .comment       0x00000000       0x12 c:/tools/sming/Sming/compiler/lib/\libmicroc.a(strchr.o)
 .comment       0x00000000       0x12 c:/tools/sming/Sming/compiler/lib/\libmicroc.a(strrchr.o)
 .comment       0x00000000       0x12 c:/tools/sming/Sming/compiler/lib/\libmicroc.a(strchrnul.o)
 .comment       0x00000000       0x12 c:/tools/sming/Sming/compiler/lib/\libmicroc.a(malloc.o)
 .comment       0x00000000       0x12 c:/tools/sming/Sming/compiler/lib/\libmicroc.a(abort.o)
 .comment       0x00000000       0x12 c:/tools/sming/Sming/compiler/lib/\libmicroc.a(floatscan.o)
 .comment       0x00000000       0x12 c:/tools/sming/Sming/compiler/lib/\libmicroc.a(shgetc.o)
 .comment       0x00000000       0x12 c:/tools/sming/Sming/compiler/lib/\libmicroc.a(__uflow.o)
 .comment       0x00000000       0x12 c:/tools/sming/Sming/compiler/lib/\libmicroc.a(__toread.o)
 .comment       0x00000000       0x12 c:/tools/sming/Sming/compiler/lib/\libmicroc.a(__stdio_exit.o)
 .comment       0x00000000       0x12 c:/tools/sming/Sming/compiler/lib/\libmicroc.a(fmodl.o)
 .comment       0x00000000       0x12 c:/tools/sming/Sming/compiler/lib/\libmicroc.a(scalbn.o)
 .comment       0x00000000       0x12 c:/tools/sming/Sming/compiler/lib/\libmicroc.a(scalbnl.o)
 .comment       0x00000000       0x12 c:/tools/sming/Sming/compiler/lib/\libmicroc.a(__errno_location.o)
 .comment       0x00000000       0x12 c:/tools/sming/Sming/compiler/lib/\libmicroc.a(fmod.o)
 .comment       0x00000286       0x41 c:/Espressif/ESP8266_SDK/lib\libphy.a(phy.o)
 .comment       0x000002c7       0x4d c:/Espressif/ESP8266_SDK/lib\libphy.a(phy_chip_v6_ana.o)
 .comment       0x00000314       0x49 c:/Espressif/ESP8266_SDK/lib\libphy.a(phy_chip_v6.o)
 .comment       0x0000035d       0x4d c:/Espressif/ESP8266_SDK/lib\libphy.a(phy_chip_v6_cal.o)
 .comment       0x000003aa       0x50 c:/Espressif/ESP8266_SDK/lib\libphy.a(phy_chip_v6_unused.o)
 .comment       0x000003fa       0x47 c:/Espressif/ESP8266_SDK/lib\libphy.a(phy_sleep.o)
 .comment       0x00000441       0x56 c:/Espressif/ESP8266_SDK/lib\libpp.a(if_hwctrl.o)
                                 0x57 (size before relaxing)
 .comment       0x00000497       0x51 c:/Espressif/ESP8266_SDK/lib\libpp.a(lmac.o)
                                 0x52 (size before relaxing)
 .comment       0x000004e8       0x4f c:/Espressif/ESP8266_SDK/lib\libpp.a(pm.o)
                                 0x50 (size before relaxing)
 .comment       0x00000537       0x61 c:/Espressif/ESP8266_SDK/lib\libpp.a(pm_for_bcn_only_mode.o)
                                 0x62 (size before relaxing)
 .comment       0x00000598       0x4f c:/Espressif/ESP8266_SDK/lib\libpp.a(pp.o)
                                 0x50 (size before relaxing)
 .comment       0x000005e7       0x59 c:/Espressif/ESP8266_SDK/lib\libpp.a(rate_control.o)
                                 0x5a (size before relaxing)
 .comment       0x00000640       0x50 c:/Espressif/ESP8266_SDK/lib\libpp.a(trc.o)
                                 0x51 (size before relaxing)
 .comment       0x00000690       0x51 c:/Espressif/ESP8266_SDK/lib\libpp.a(wdev.o)
                                 0x52 (size before relaxing)
 .comment       0x000006e1       0x54 c:/Espressif/ESP8266_SDK/lib\libpp.a(esf_buf.o)
                                 0x55 (size before relaxing)
 .comment       0x00000735       0x56 c:/Espressif/ESP8266_SDK/lib\libnet80211.a(ieee80211.o)
                                 0x57 (size before relaxing)
 .comment       0x0000078b       0x5d c:/Espressif/ESP8266_SDK/lib\libnet80211.a(ieee80211_crypto.o)
                                 0x5e (size before relaxing)
 .comment       0x000007e8       0x5a c:/Espressif/ESP8266_SDK/lib\libnet80211.a(ieee80211_ets.o)
                                 0x5b (size before relaxing)
 .comment       0x00000842       0x5d c:/Espressif/ESP8266_SDK/lib\libnet80211.a(ieee80211_hostap.o)
                                 0x5e (size before relaxing)
 .comment       0x0000089f       0x59 c:/Espressif/ESP8266_SDK/lib\libnet80211.a(ieee80211_ht.o)
                                 0x5a (size before relaxing)
 .comment       0x000008f8       0x5c c:/Espressif/ESP8266_SDK/lib\libnet80211.a(ieee80211_input.o)
                                 0x5d (size before relaxing)
 .comment       0x00000954       0x61 c:/Espressif/ESP8266_SDK/lib\libnet80211.a(ieee80211_mesh_quick.o)
                                 0x62 (size before relaxing)
 .comment       0x000009b5       0x5d c:/Espressif/ESP8266_SDK/lib\libnet80211.a(ieee80211_output.o)
                                 0x5e (size before relaxing)
 .comment       0x00000a12       0x5a c:/Espressif/ESP8266_SDK/lib\libnet80211.a(ieee80211_phy.o)
                                 0x5b (size before relaxing)
 .comment       0x00000a6c       0x5c c:/Espressif/ESP8266_SDK/lib\libnet80211.a(ieee80211_power.o)
                                 0x5d (size before relaxing)
 .comment       0x00000ac8       0x5c c:/Espressif/ESP8266_SDK/lib\libnet80211.a(ieee80211_proto.o)
                                 0x5d (size before relaxing)
 .comment       0x00000b24       0x5b c:/Espressif/ESP8266_SDK/lib\libnet80211.a(ieee80211_rfid.o)
                                 0x5c (size before relaxing)
 .comment       0x00000b7f       0x5b c:/Espressif/ESP8266_SDK/lib\libnet80211.a(ieee80211_scan.o)
                                 0x5c (size before relaxing)
 .comment       0x00000bda       0x5a c:/Espressif/ESP8266_SDK/lib\libnet80211.a(ieee80211_sta.o)
                                 0x5b (size before relaxing)
 .comment       0x00000c34       0x53 c:/Espressif/ESP8266_SDK/lib\libnet80211.a(wl_chm.o)
                                 0x54 (size before relaxing)
 .comment       0x00000c87       0x53 c:/Espressif/ESP8266_SDK/lib\libnet80211.a(wl_cnx.o)
                                 0x54 (size before relaxing)
 .comment       0x00000cda       0x5d c:/Espressif/ESP8266_SDK/lib\libnet80211.a(ieee80211_action.o)
                                 0x5e (size before relaxing)
 .comment       0x00000d37       0x64 c:/Espressif/ESP8266_SDK/lib\libnet80211.a(ieee80211_action_vendor.o)
                                 0x65 (size before relaxing)
 .comment       0x00000d9b       0x62 c:/Espressif/ESP8266_SDK/lib\libnet80211.a(ieee80211_crypto_ccmp.o)
                                 0x63 (size before relaxing)
 .comment       0x00000dfd       0x60 c:/Espressif/ESP8266_SDK/lib\libnet80211.a(ieee80211_ie_vendor.o)
                                 0x61 (size before relaxing)
 .comment       0x00000e5d       0x51 c:/Espressif/ESP8266_SDK/lib\liblwip.a(dhcp.o)
                                 0x52 (size before relaxing)
 .comment       0x00000eae       0x57 c:/Espressif/ESP8266_SDK/lib\liblwip.a(dhcpserver.o)
                                 0x58 (size before relaxing)
 .comment       0x00000f05       0x50 c:/Espressif/ESP8266_SDK/lib\liblwip.a(dns.o)
                                 0x51 (size before relaxing)
 .comment       0x00000f55       0x58 c:/Espressif/ESP8266_SDK/lib\liblwip.a(espconn_tcp.o)
                                 0x59 (size before relaxing)
 .comment       0x00000fad       0x53 c:/Espressif/ESP8266_SDK/lib\liblwip.a(etharp.o)
                                 0x54 (size before relaxing)
 .comment       0x00001000       0x51 c:/Espressif/ESP8266_SDK/lib\liblwip.a(init.o)
                                 0x52 (size before relaxing)
 .comment       0x00001051       0x54 c:/Espressif/ESP8266_SDK/lib\liblwip.a(ip_addr.o)
                                 0x55 (size before relaxing)
 .comment       0x000010a5       0x4f c:/Espressif/ESP8266_SDK/lib\liblwip.a(ip.o)
                                 0x50 (size before relaxing)
 .comment       0x000010f4       0x51 c:/Espressif/ESP8266_SDK/lib\liblwip.a(memp.o)
                                 0x52 (size before relaxing)
 .comment       0x00001145       0x52 c:/Espressif/ESP8266_SDK/lib\liblwip.a(netif.o)
                                 0x53 (size before relaxing)
 .comment       0x00001197       0x51 c:/Espressif/ESP8266_SDK/lib\liblwip.a(pbuf.o)
                                 0x52 (size before relaxing)
 .comment       0x000011e8       0x50 c:/Espressif/ESP8266_SDK/lib\liblwip.a(raw.o)
                                 0x51 (size before relaxing)
 .comment       0x00001238       0x53 c:/Espressif/ESP8266_SDK/lib\liblwip.a(tcp_in.o)
                                 0x54 (size before relaxing)
 .comment       0x0000128b       0x50 c:/Espressif/ESP8266_SDK/lib\liblwip.a(tcp.o)
                                 0x51 (size before relaxing)
 .comment       0x000012db       0x54 c:/Espressif/ESP8266_SDK/lib\liblwip.a(tcp_out.o)
                                 0x55 (size before relaxing)
 .comment       0x0000132f       0x53 c:/Espressif/ESP8266_SDK/lib\liblwip.a(timers.o)
                                 0x54 (size before relaxing)
 .comment       0x00001382       0x50 c:/Espressif/ESP8266_SDK/lib\liblwip.a(udp.o)
                                 0x51 (size before relaxing)
 .comment       0x000013d2       0x54 c:/Espressif/ESP8266_SDK/lib\liblwip.a(espconn.o)
                                 0x55 (size before relaxing)
 .comment       0x00001426       0x58 c:/Espressif/ESP8266_SDK/lib\liblwip.a(espconn_udp.o)
                                 0x59 (size before relaxing)
 .comment       0x0000147e       0x51 c:/Espressif/ESP8266_SDK/lib\liblwip.a(icmp.o)
                                 0x52 (size before relaxing)
 .comment       0x000014cf       0x51 c:/Espressif/ESP8266_SDK/lib\liblwip.a(igmp.o)
                                 0x52 (size before relaxing)
 .comment       0x00001520       0x58 c:/Espressif/ESP8266_SDK/lib\liblwip.a(inet_chksum.o)
                                 0x59 (size before relaxing)
 .comment       0x00001578       0x56 c:/Espressif/ESP8266_SDK/lib\libwpa.a(ap_config.o)
                                 0x57 (size before relaxing)
 .comment       0x000015ce       0x53 c:/Espressif/ESP8266_SDK/lib\libwpa.a(common.o)
                                 0x54 (size before relaxing)
 .comment       0x00001621       0x56 c:/Espressif/ESP8266_SDK/lib\libwpa.a(os_xtensa.o)
                                 0x57 (size before relaxing)
 .comment       0x00001677       0x55 c:/Espressif/ESP8266_SDK/lib\libwpa.a(wpa_auth.o)
                                 0x56 (size before relaxing)
 .comment       0x000016cc       0x58 c:/Espressif/ESP8266_SDK/lib\libwpa.a(wpa_auth_ie.o)
                                 0x59 (size before relaxing)
 .comment       0x00001724       0x50 c:/Espressif/ESP8266_SDK/lib\libwpa.a(wpa.o)
                                 0x51 (size before relaxing)
 .comment       0x00001774       0x57 c:/Espressif/ESP8266_SDK/lib\libwpa.a(wpa_common.o)
                                 0x58 (size before relaxing)
 .comment       0x000017cb       0x56 c:/Espressif/ESP8266_SDK/lib\libwpa.a(wpa_debug.o)
                                 0x57 (size before relaxing)
 .comment       0x00001821       0x53 c:/Espressif/ESP8266_SDK/lib\libwpa.a(wpa_ie.o)
                                 0x54 (size before relaxing)
 .comment       0x00001874       0x55 c:/Espressif/ESP8266_SDK/lib\libwpa.a(wpa_main.o)
                                 0x56 (size before relaxing)
 .comment       0x000018c9       0x56 c:/Espressif/ESP8266_SDK/lib\libwpa.a(wpas_glue.o)
                                 0x57 (size before relaxing)
 .comment       0x00000000       0x12 c:/tools/sming/Sming/compiler/lib/\libsming.a(Timer.o)
 .comment       0x0000191f       0x55 c:/Espressif/ESP8266_SDK/lib\libcrypto.a(aes-wrap.o)
                                 0x56 (size before relaxing)
 .comment       0x00001974       0x5d c:/Espressif/ESP8266_SDK/lib\libcrypto.a(aes-internal-enc.o)
                                 0x5e (size before relaxing)
 .comment       0x000019d1       0x59 c:/Espressif/ESP8266_SDK/lib\libcrypto.a(aes-internal.o)
                                 0x5a (size before relaxing)
 .comment       0x00001a2a       0x62 c:/Espressif/ESP8266_SDK/lib\libnet80211.a(ieee80211_crypto_tkip.o)
                                 0x63 (size before relaxing)
 .comment       0x00001a8c       0x61 c:/Espressif/ESP8266_SDK/lib\libnet80211.a(ieee80211_crypto_wep.o)
                                 0x62 (size before relaxing)

.xt.lit._ZN17ESP01_DescriptionC2Ev
                0x00000000        0x8
 .xt.lit._ZN17ESP01_DescriptionC2Ev
                0x00000000        0x8 c:/tools/sming/Sming/compiler/lib/\libsming.a(user_main.o)

.xt.prop._ZN17ESP01_DescriptionC2Ev
                0x00000000       0x24
 .xt.prop._ZN17ESP01_DescriptionC2Ev
                0x00000000       0x24 c:/tools/sming/Sming/compiler/lib/\libsming.a(user_main.o)

.xt.lit._ZN6VectorI8DelegateIFvvEEEixEj
                0x00000000        0x0
 .xt.lit._ZN6VectorI8DelegateIFvvEEEixEj
                0x00000000        0x0 c:/tools/sming/Sming/compiler/lib/\libsming.a(System.o)
                                  0x8 (size before relaxing)

.xt.lit._ZN6VectorIP19ISystemReadyHandlerEixEj
                0x00000000        0x0
 .xt.lit._ZN6VectorIP19ISystemReadyHandlerEixEj
                0x00000000        0x0 c:/tools/sming/Sming/compiler/lib/\libsming.a(System.o)
                                  0x8 (size before relaxing)

.xt.lit._ZNK6VectorIP19ISystemReadyHandlerEixEj
                0x00000000        0x0
 .xt.lit._ZNK6VectorIP19ISystemReadyHandlerEixEj
                0x00000000        0x0 c:/tools/sming/Sming/compiler/lib/\libsming.a(System.o)
                                  0x8 (size before relaxing)

.xt.lit._ZNK6VectorI8DelegateIFvvEEEixEj
                0x00000000        0x0
 .xt.lit._ZNK6VectorI8DelegateIFvvEEEixEj
                0x00000000        0x0 c:/tools/sming/Sming/compiler/lib/\libsming.a(System.o)
                                  0x8 (size before relaxing)

.xt.lit._ZN6VectorI8DelegateIFvvEEE17removeAllElementsEv
                0x00000000        0x0
 .xt.lit._ZN6VectorI8DelegateIFvvEEE17removeAllElementsEv
                0x00000000        0x0 c:/tools/sming/Sming/compiler/lib/\libsming.a(System.o)
                                  0x8 (size before relaxing)

.xt.lit._ZN6VectorI8DelegateIFvvEEED2Ev
                0x00000000        0x0
 .xt.lit._ZN6VectorI8DelegateIFvvEEED2Ev
                0x00000000        0x0 c:/tools/sming/Sming/compiler/lib/\libsming.a(System.o)
                                  0x8 (size before relaxing)

.xt.lit._ZN6VectorI8DelegateIFvvEEED0Ev
                0x00000000        0x0
 .xt.lit._ZN6VectorI8DelegateIFvvEEED0Ev
                0x00000000        0x0 c:/tools/sming/Sming/compiler/lib/\libsming.a(System.o)
                                  0x8 (size before relaxing)

.xt.lit._ZN6VectorIP19ISystemReadyHandlerE17removeAllElementsEv
                0x00000000        0x0
 .xt.lit._ZN6VectorIP19ISystemReadyHandlerE17removeAllElementsEv
                0x00000000        0x0 c:/tools/sming/Sming/compiler/lib/\libsming.a(System.o)
                                  0x8 (size before relaxing)

.xt.lit._ZN6VectorIP19ISystemReadyHandlerED2Ev
                0x00000000        0x0
 .xt.lit._ZN6VectorIP19ISystemReadyHandlerED2Ev
                0x00000000        0x0 c:/tools/sming/Sming/compiler/lib/\libsming.a(System.o)
                                  0x8 (size before relaxing)

.xt.lit._ZN6VectorIP19ISystemReadyHandlerED0Ev
                0x00000000        0x0
 .xt.lit._ZN6VectorIP19ISystemReadyHandlerED0Ev
                0x00000000        0x0 c:/tools/sming/Sming/compiler/lib/\libsming.a(System.o)
                                  0x8 (size before relaxing)

.xt.prop._ZNK6VectorI8DelegateIFvvEEE5countEv
                0x00000000       0x24
 .xt.prop._ZNK6VectorI8DelegateIFvvEEE5countEv
                0x00000000       0x24 c:/tools/sming/Sming/compiler/lib/\libsming.a(System.o)

.xt.prop._ZNK6VectorIP19ISystemReadyHandlerE5countEv
                0x00000000       0x24
 .xt.prop._ZNK6VectorIP19ISystemReadyHandlerE5countEv
                0x00000000       0x24 c:/tools/sming/Sming/compiler/lib/\libsming.a(System.o)

.xt.prop._ZN6VectorI8DelegateIFvvEEEixEj
                0x00000000       0x3c
 .xt.prop._ZN6VectorI8DelegateIFvvEEEixEj
                0x00000000       0x3c c:/tools/sming/Sming/compiler/lib/\libsming.a(System.o)

.xt.prop._ZN6VectorIP19ISystemReadyHandlerEixEj
                0x00000000       0x3c
 .xt.prop._ZN6VectorIP19ISystemReadyHandlerEixEj
                0x00000000       0x3c c:/tools/sming/Sming/compiler/lib/\libsming.a(System.o)

.xt.prop._ZNK6VectorIP19ISystemReadyHandlerEixEj
                0x00000000       0x30
 .xt.prop._ZNK6VectorIP19ISystemReadyHandlerEixEj
                0x00000000       0x30 c:/tools/sming/Sming/compiler/lib/\libsming.a(System.o)

.xt.prop._ZNK6VectorI8DelegateIFvvEEEixEj
                0x00000000       0x30
 .xt.prop._ZNK6VectorI8DelegateIFvvEEEixEj
                0x00000000       0x30 c:/tools/sming/Sming/compiler/lib/\libsming.a(System.o)

.xt.prop._ZN6VectorI8DelegateIFvvEEE17removeAllElementsEv
                0x00000000       0x48
 .xt.prop._ZN6VectorI8DelegateIFvvEEE17removeAllElementsEv
                0x00000000       0x48 c:/tools/sming/Sming/compiler/lib/\libsming.a(System.o)

.xt.prop._ZN6VectorI8DelegateIFvvEEED2Ev
                0x00000000       0x24
 .xt.prop._ZN6VectorI8DelegateIFvvEEED2Ev
                0x00000000       0x24 c:/tools/sming/Sming/compiler/lib/\libsming.a(System.o)

.xt.prop._ZN6VectorI8DelegateIFvvEEED0Ev
                0x00000000       0x24
 .xt.prop._ZN6VectorI8DelegateIFvvEEED0Ev
                0x00000000       0x24 c:/tools/sming/Sming/compiler/lib/\libsming.a(System.o)

.xt.prop._ZN6VectorIP19ISystemReadyHandlerE17removeAllElementsEv
                0x00000000       0x3c
 .xt.prop._ZN6VectorIP19ISystemReadyHandlerE17removeAllElementsEv
                0x00000000       0x3c c:/tools/sming/Sming/compiler/lib/\libsming.a(System.o)

.xt.prop._ZN6VectorIP19ISystemReadyHandlerED2Ev
                0x00000000       0x24
 .xt.prop._ZN6VectorIP19ISystemReadyHandlerED2Ev
                0x00000000       0x24 c:/tools/sming/Sming/compiler/lib/\libsming.a(System.o)

.xt.prop._ZN6VectorIP19ISystemReadyHandlerED0Ev
                0x00000000       0x24
 .xt.prop._ZN6VectorIP19ISystemReadyHandlerED0Ev
                0x00000000       0x24 c:/tools/sming/Sming/compiler/lib/\libsming.a(System.o)

.xt.prop._ZTV6VectorI8DelegateIFvvEEE
                0x00000000        0xc
 .xt.prop._ZTV6VectorI8DelegateIFvvEEE
                0x00000000        0xc c:/tools/sming/Sming/compiler/lib/\libsming.a(System.o)

.xt.prop._ZTV6VectorIP19ISystemReadyHandlerE
                0x00000000        0xc
 .xt.prop._ZTV6VectorIP19ISystemReadyHandlerE
                0x00000000        0xc c:/tools/sming/Sming/compiler/lib/\libsming.a(System.o)

.xt.prop._ZTV9IPAddress
                0x00000000        0xc
 .xt.prop._ZTV9IPAddress
                0x00000000        0xc c:/tools/sming/Sming/compiler/lib/\libsming.a(IPAddress.o)

.xt.lit._ZN5Print5writeEPKc
                0x00000000        0x0
 .xt.lit._ZN5Print5writeEPKc
                0x00000000        0x0 c:/tools/sming/Sming/compiler/lib/\libsming.a(Print.o)
                                  0x8 (size before relaxing)

.xt.prop._ZN5Print5writeEPKc
                0x00000000       0x30
 .xt.prop._ZN5Print5writeEPKc
                0x00000000       0x30 c:/tools/sming/Sming/compiler/lib/\libsming.a(Print.o)

.xt.prop._ZN8DelegateIFvvEE4copyERKS1_
                0x00000000       0x24
 .xt.prop._ZN8DelegateIFvvEE4copyERKS1_
                0x00000000       0x24 c:/tools/sming/Sming/compiler/lib/\libsming.a(Interrupts.o)

.debug_frame    0x00000000     0x2328
 .debug_frame   0x00000000       0x70 c:/tools/sming/Sming/compiler/lib/\libsming.a(user_main.o)
 .debug_frame   0x00000070      0x3b0 c:/tools/sming/Sming/compiler/lib/\libsming.a(System.o)
 .debug_frame   0x00000420      0x128 c:/tools/sming/Sming/compiler/lib/\libsming.a(esp_cplusplus.o)
 .debug_frame   0x00000548       0xc0 c:/tools/sming/Sming/compiler/lib/\libsming.a(m_printf.o)
 .debug_frame   0x00000608       0xfc c:/tools/sming/Sming/compiler/lib/\libsming.a(stringconversion.o)
 .debug_frame   0x00000704      0x1b8 c:/tools/sming/Sming/compiler/lib/\libsming.a(IPAddress.o)
 .debug_frame   0x000008bc      0x3d4 c:/tools/sming/Sming/compiler/lib/\libsming.a(Print.o)
 .debug_frame   0x00000c90      0xac8 c:/tools/sming/Sming/compiler/lib/\libsming.a(WString.o)
 .debug_frame   0x00001758      0x24c c:/tools/sming/Sming/compiler/lib/\libsming.a(Interrupts.o)
 .debug_frame   0x000019a4       0xe0 c:/tools/sming/Sming/compiler/lib/\libsming.a(Digital.o)
 .debug_frame   0x00001a84       0xa8 out/build/app_app.a(application.o)
 .debug_frame   0x00001b2c       0x20 c:/tools/sming/Sming/compiler/lib/\libmicroc.a(isspace.o)
 .debug_frame   0x00001b4c       0x20 c:/tools/sming/Sming/compiler/lib/\libmicroc.a(tolower.o)
 .debug_frame   0x00001b6c       0x20 c:/tools/sming/Sming/compiler/lib/\libmicroc.a(toupper.o)
 .debug_frame   0x00001b8c       0x30 c:/tools/sming/Sming/compiler/lib/\libmicroc.a(atof.o)
 .debug_frame   0x00001bbc       0x20 c:/tools/sming/Sming/compiler/lib/\libmicroc.a(atoi.o)
 .debug_frame   0x00001bdc       0xa0 c:/tools/sming/Sming/compiler/lib/\libmicroc.a(strtod.o)
 .debug_frame   0x00001c7c       0x40 c:/tools/sming/Sming/compiler/lib/\libmicroc.a(__fpclassify.o)
 .debug_frame   0x00001cbc       0x30 c:/tools/sming/Sming/compiler/lib/\libmicroc.a(strchr.o)
 .debug_frame   0x00001cec       0x30 c:/tools/sming/Sming/compiler/lib/\libmicroc.a(strrchr.o)
 .debug_frame   0x00001d1c       0x30 c:/tools/sming/Sming/compiler/lib/\libmicroc.a(strchrnul.o)
 .debug_frame   0x00001d4c       0xb0 c:/tools/sming/Sming/compiler/lib/\libmicroc.a(malloc.o)
 .debug_frame   0x00001dfc       0x30 c:/tools/sming/Sming/compiler/lib/\libmicroc.a(abort.o)
 .debug_frame   0x00001e2c       0x94 c:/tools/sming/Sming/compiler/lib/\libmicroc.a(floatscan.o)
 .debug_frame   0x00001ec0       0x48 c:/tools/sming/Sming/compiler/lib/\libmicroc.a(shgetc.o)
 .debug_frame   0x00001f08       0x38 c:/tools/sming/Sming/compiler/lib/\libmicroc.a(__uflow.o)
 .debug_frame   0x00001f40       0x50 c:/tools/sming/Sming/compiler/lib/\libmicroc.a(__toread.o)
 .debug_frame   0x00001f90       0x20 c:/tools/sming/Sming/compiler/lib/\libmicroc.a(__stdio_exit.o)
 .debug_frame   0x00001fb0       0x30 c:/tools/sming/Sming/compiler/lib/\libmicroc.a(fmodl.o)
 .debug_frame   0x00001fe0       0x34 c:/tools/sming/Sming/compiler/lib/\libmicroc.a(scalbn.o)
 .debug_frame   0x00002014       0x30 c:/tools/sming/Sming/compiler/lib/\libmicroc.a(scalbnl.o)
 .debug_frame   0x00002044       0x20 c:/tools/sming/Sming/compiler/lib/\libmicroc.a(__errno_location.o)
 .debug_frame   0x00002064       0x3c c:/tools/sming/Sming/compiler/lib/\libmicroc.a(fmod.o)
 .debug_frame   0x000020a0      0x288 c:/tools/sming/Sming/compiler/lib/\libsming.a(Timer.o)

.debug_info     0x00000000    0x131f3
 .debug_info    0x00000000      0xd21 c:/tools/sming/Sming/compiler/lib/\libsming.a(user_main.o)
 .debug_info    0x00000d21     0x268a c:/tools/sming/Sming/compiler/lib/\libsming.a(System.o)
 .debug_info    0x000033ab      0x2ed c:/tools/sming/Sming/compiler/lib/\libsming.a(esp_cplusplus.o)
 .debug_info    0x00003698      0xaf1 c:/tools/sming/Sming/compiler/lib/\libsming.a(m_printf.o)
 .debug_info    0x00004189      0x68d c:/tools/sming/Sming/compiler/lib/\libsming.a(stringconversion.o)
 .debug_info    0x00004816     0x210a c:/tools/sming/Sming/compiler/lib/\libsming.a(IPAddress.o)
 .debug_info    0x00006920     0x267e c:/tools/sming/Sming/compiler/lib/\libsming.a(Print.o)
 .debug_info    0x00008f9e     0x38a5 c:/tools/sming/Sming/compiler/lib/\libsming.a(WString.o)
 .debug_info    0x0000c843     0x119f c:/tools/sming/Sming/compiler/lib/\libsming.a(Interrupts.o)
 .debug_info    0x0000d9e2      0x5d5 c:/tools/sming/Sming/compiler/lib/\libsming.a(Digital.o)
 .debug_info    0x0000dfb7      0xe1a out/build/app_app.a(application.o)
 .debug_info    0x0000edd1       0xab c:/tools/sming/Sming/compiler/lib/\libmicroc.a(isspace.o)
 .debug_info    0x0000ee7c       0xab c:/tools/sming/Sming/compiler/lib/\libmicroc.a(tolower.o)
 .debug_info    0x0000ef27       0xab c:/tools/sming/Sming/compiler/lib/\libmicroc.a(toupper.o)
 .debug_info    0x0000efd2       0xef c:/tools/sming/Sming/compiler/lib/\libmicroc.a(atof.o)
 .debug_info    0x0000f0c1      0x103 c:/tools/sming/Sming/compiler/lib/\libmicroc.a(atoi.o)
 .debug_info    0x0000f1c4      0x4d1 c:/tools/sming/Sming/compiler/lib/\libmicroc.a(strtod.o)
 .debug_info    0x0000f695      0x11c c:/tools/sming/Sming/compiler/lib/\libmicroc.a(__fpclassify.o)
 .debug_info    0x0000f7b1      0x100 c:/tools/sming/Sming/compiler/lib/\libmicroc.a(strchr.o)
 .debug_info    0x0000f8b1       0xfc c:/tools/sming/Sming/compiler/lib/\libmicroc.a(strrchr.o)
 .debug_info    0x0000f9ad      0x124 c:/tools/sming/Sming/compiler/lib/\libmicroc.a(strchrnul.o)
 .debug_info    0x0000fad1      0x242 c:/tools/sming/Sming/compiler/lib/\libmicroc.a(malloc.o)
 .debug_info    0x0000fd13       0xcb c:/tools/sming/Sming/compiler/lib/\libmicroc.a(abort.o)
 .debug_info    0x0000fdde      0xbee c:/tools/sming/Sming/compiler/lib/\libmicroc.a(floatscan.o)
 .debug_info    0x000109cc      0x33a c:/tools/sming/Sming/compiler/lib/\libmicroc.a(shgetc.o)
 .debug_info    0x00010d06      0x324 c:/tools/sming/Sming/compiler/lib/\libmicroc.a(__uflow.o)
 .debug_info    0x0001102a      0x318 c:/tools/sming/Sming/compiler/lib/\libmicroc.a(__toread.o)
 .debug_info    0x00011342      0x2dc c:/tools/sming/Sming/compiler/lib/\libmicroc.a(__stdio_exit.o)
 .debug_info    0x0001161e       0xf1 c:/tools/sming/Sming/compiler/lib/\libmicroc.a(fmodl.o)
 .debug_info    0x0001170f       0xea c:/tools/sming/Sming/compiler/lib/\libmicroc.a(scalbn.o)
 .debug_info    0x000117f9       0xeb c:/tools/sming/Sming/compiler/lib/\libmicroc.a(scalbnl.o)
 .debug_info    0x000118e4       0x59 c:/tools/sming/Sming/compiler/lib/\libmicroc.a(__errno_location.o)
 .debug_info    0x0001193d      0x174 c:/tools/sming/Sming/compiler/lib/\libmicroc.a(fmod.o)
 .debug_info    0x00011ab1       0xab c:/tools/sming/Sming/compiler/lib/\libmicrogcc.a(_ashldi3.o)
 .debug_info    0x00011b5c       0xac c:/tools/sming/Sming/compiler/lib/\libmicrogcc.a(_cmpdf2.o)
 .debug_info    0x00011c08       0xab c:/tools/sming/Sming/compiler/lib/\libmicrogcc.a(_lshrdi3.o)
 .debug_info    0x00011cb3       0xab c:/tools/sming/Sming/compiler/lib/\libmicrogcc.a(_modsi3.o)
 .debug_info    0x00011d5e     0x1292 c:/tools/sming/Sming/compiler/lib/\libsming.a(Timer.o)
 .debug_info    0x00012ff0       0xab c:/tools/sming/Sming/compiler/lib/\libmicrogcc.a(_ashrdi3.o)
 .debug_info    0x0001309b       0xac c:/tools/sming/Sming/compiler/lib/\libmicrogcc.a(_divsf3.o)
 .debug_info    0x00013147       0xac c:/tools/sming/Sming/compiler/lib/\libmicrogcc.a(_fixsfsi.o)

.debug_abbrev   0x00000000     0x40ca
 .debug_abbrev  0x00000000      0x41e c:/tools/sming/Sming/compiler/lib/\libsming.a(user_main.o)
 .debug_abbrev  0x0000041e      0x651 c:/tools/sming/Sming/compiler/lib/\libsming.a(System.o)
 .debug_abbrev  0x00000a6f      0x1ec c:/tools/sming/Sming/compiler/lib/\libsming.a(esp_cplusplus.o)
 .debug_abbrev  0x00000c5b      0x3a5 c:/tools/sming/Sming/compiler/lib/\libsming.a(m_printf.o)
 .debug_abbrev  0x00001000      0x19a c:/tools/sming/Sming/compiler/lib/\libsming.a(stringconversion.o)
 .debug_abbrev  0x0000119a      0x4c0 c:/tools/sming/Sming/compiler/lib/\libsming.a(IPAddress.o)
 .debug_abbrev  0x0000165a      0x512 c:/tools/sming/Sming/compiler/lib/\libsming.a(Print.o)
 .debug_abbrev  0x00001b6c      0x4a6 c:/tools/sming/Sming/compiler/lib/\libsming.a(WString.o)
 .debug_abbrev  0x00002012      0x4b5 c:/tools/sming/Sming/compiler/lib/\libsming.a(Interrupts.o)
 .debug_abbrev  0x000024c7      0x29d c:/tools/sming/Sming/compiler/lib/\libsming.a(Digital.o)
 .debug_abbrev  0x00002764      0x3c9 out/build/app_app.a(application.o)
 .debug_abbrev  0x00002b2d       0x53 c:/tools/sming/Sming/compiler/lib/\libmicroc.a(isspace.o)
 .debug_abbrev  0x00002b80       0x53 c:/tools/sming/Sming/compiler/lib/\libmicroc.a(tolower.o)
 .debug_abbrev  0x00002bd3       0x53 c:/tools/sming/Sming/compiler/lib/\libmicroc.a(toupper.o)
 .debug_abbrev  0x00002c26       0x98 c:/tools/sming/Sming/compiler/lib/\libmicroc.a(atof.o)
 .debug_abbrev  0x00002cbe       0xac c:/tools/sming/Sming/compiler/lib/\libmicroc.a(atoi.o)
 .debug_abbrev  0x00002d6a      0x170 c:/tools/sming/Sming/compiler/lib/\libmicroc.a(strtod.o)
 .debug_abbrev  0x00002eda       0xbc c:/tools/sming/Sming/compiler/lib/\libmicroc.a(__fpclassify.o)
 .debug_abbrev  0x00002f96       0xa5 c:/tools/sming/Sming/compiler/lib/\libmicroc.a(strchr.o)
 .debug_abbrev  0x0000303b       0xa5 c:/tools/sming/Sming/compiler/lib/\libmicroc.a(strrchr.o)
 .debug_abbrev  0x000030e0       0xb2 c:/tools/sming/Sming/compiler/lib/\libmicroc.a(strchrnul.o)
 .debug_abbrev  0x00003192      0x137 c:/tools/sming/Sming/compiler/lib/\libmicroc.a(malloc.o)
 .debug_abbrev  0x000032c9       0x8c c:/tools/sming/Sming/compiler/lib/\libmicroc.a(abort.o)
 .debug_abbrev  0x00003355      0x2bf c:/tools/sming/Sming/compiler/lib/\libmicroc.a(floatscan.o)
 .debug_abbrev  0x00003614      0x121 c:/tools/sming/Sming/compiler/lib/\libmicroc.a(shgetc.o)
 .debug_abbrev  0x00003735      0x103 c:/tools/sming/Sming/compiler/lib/\libmicroc.a(__uflow.o)
 .debug_abbrev  0x00003838      0x108 c:/tools/sming/Sming/compiler/lib/\libmicroc.a(__toread.o)
 .debug_abbrev  0x00003940       0xbb c:/tools/sming/Sming/compiler/lib/\libmicroc.a(__stdio_exit.o)
 .debug_abbrev  0x000039fb       0x86 c:/tools/sming/Sming/compiler/lib/\libmicroc.a(fmodl.o)
 .debug_abbrev  0x00003a81       0x89 c:/tools/sming/Sming/compiler/lib/\libmicroc.a(scalbn.o)
 .debug_abbrev  0x00003b0a       0x86 c:/tools/sming/Sming/compiler/lib/\libmicroc.a(scalbnl.o)
 .debug_abbrev  0x00003b90       0x51 c:/tools/sming/Sming/compiler/lib/\libmicroc.a(__errno_location.o)
 .debug_abbrev  0x00003be1       0xb6 c:/tools/sming/Sming/compiler/lib/\libmicroc.a(fmod.o)
 .debug_abbrev  0x00003c97       0x14 c:/tools/sming/Sming/compiler/lib/\libmicrogcc.a(_ashldi3.o)
 .debug_abbrev  0x00003cab       0x14 c:/tools/sming/Sming/compiler/lib/\libmicrogcc.a(_cmpdf2.o)
 .debug_abbrev  0x00003cbf       0x14 c:/tools/sming/Sming/compiler/lib/\libmicrogcc.a(_lshrdi3.o)
 .debug_abbrev  0x00003cd3       0x14 c:/tools/sming/Sming/compiler/lib/\libmicrogcc.a(_modsi3.o)
 .debug_abbrev  0x00003ce7      0x3a7 c:/tools/sming/Sming/compiler/lib/\libsming.a(Timer.o)
 .debug_abbrev  0x0000408e       0x14 c:/tools/sming/Sming/compiler/lib/\libmicrogcc.a(_ashrdi3.o)
 .debug_abbrev  0x000040a2       0x14 c:/tools/sming/Sming/compiler/lib/\libmicrogcc.a(_divsf3.o)
 .debug_abbrev  0x000040b6       0x14 c:/tools/sming/Sming/compiler/lib/\libmicrogcc.a(_fixsfsi.o)

.debug_loc      0x00000000     0x8ea6
 .debug_loc     0x00000000       0x20 c:/tools/sming/Sming/compiler/lib/\libsming.a(user_main.o)
 .debug_loc     0x00000020      0xc5f c:/tools/sming/Sming/compiler/lib/\libsming.a(System.o)
 .debug_loc     0x00000c7f       0x6d c:/tools/sming/Sming/compiler/lib/\libsming.a(esp_cplusplus.o)
 .debug_loc     0x00000cec      0x8ad c:/tools/sming/Sming/compiler/lib/\libsming.a(m_printf.o)
 .debug_loc     0x00001599      0x736 c:/tools/sming/Sming/compiler/lib/\libsming.a(stringconversion.o)
 .debug_loc     0x00001ccf      0x504 c:/tools/sming/Sming/compiler/lib/\libsming.a(IPAddress.o)
 .debug_loc     0x000021d3     0x1406 c:/tools/sming/Sming/compiler/lib/\libsming.a(Print.o)
 .debug_loc     0x000035d9     0x21ac c:/tools/sming/Sming/compiler/lib/\libsming.a(WString.o)
 .debug_loc     0x00005785      0x7df c:/tools/sming/Sming/compiler/lib/\libsming.a(Interrupts.o)
 .debug_loc     0x00005f64      0x3bd c:/tools/sming/Sming/compiler/lib/\libsming.a(Digital.o)
 .debug_loc     0x00006321       0x20 out/build/app_app.a(application.o)
 .debug_loc     0x00006341       0x2e c:/tools/sming/Sming/compiler/lib/\libmicroc.a(isspace.o)
 .debug_loc     0x0000636f       0x21 c:/tools/sming/Sming/compiler/lib/\libmicroc.a(tolower.o)
 .debug_loc     0x00006390       0x21 c:/tools/sming/Sming/compiler/lib/\libmicroc.a(toupper.o)
 .debug_loc     0x000063b1       0x21 c:/tools/sming/Sming/compiler/lib/\libmicroc.a(atof.o)
 .debug_loc     0x000063d2       0x9a c:/tools/sming/Sming/compiler/lib/\libmicroc.a(atoi.o)
 .debug_loc     0x0000646c      0x14a c:/tools/sming/Sming/compiler/lib/\libmicroc.a(strtod.o)
 .debug_loc     0x000065b6       0xb6 c:/tools/sming/Sming/compiler/lib/\libmicroc.a(__fpclassify.o)
 .debug_loc     0x0000666c       0x6b c:/tools/sming/Sming/compiler/lib/\libmicroc.a(strchr.o)
 .debug_loc     0x000066d7       0x42 c:/tools/sming/Sming/compiler/lib/\libmicroc.a(strrchr.o)
 .debug_loc     0x00006719       0x9a c:/tools/sming/Sming/compiler/lib/\libmicroc.a(strchrnul.o)
 .debug_loc     0x000067b3      0x11c c:/tools/sming/Sming/compiler/lib/\libmicroc.a(malloc.o)
 .debug_loc     0x000068cf     0x1873 c:/tools/sming/Sming/compiler/lib/\libmicroc.a(floatscan.o)
 .debug_loc     0x00008142       0x75 c:/tools/sming/Sming/compiler/lib/\libmicroc.a(shgetc.o)
 .debug_loc     0x000081b7       0x2c c:/tools/sming/Sming/compiler/lib/\libmicroc.a(__uflow.o)
 .debug_loc     0x000081e3       0x2c c:/tools/sming/Sming/compiler/lib/\libmicroc.a(__toread.o)
 .debug_loc     0x0000820f       0x50 c:/tools/sming/Sming/compiler/lib/\libmicroc.a(fmodl.o)
 .debug_loc     0x0000825f      0x1c2 c:/tools/sming/Sming/compiler/lib/\libmicroc.a(scalbn.o)
 .debug_loc     0x00008421       0x49 c:/tools/sming/Sming/compiler/lib/\libmicroc.a(scalbnl.o)
 .debug_loc     0x0000846a      0x242 c:/tools/sming/Sming/compiler/lib/\libmicroc.a(fmod.o)
 .debug_loc     0x000086ac      0x7fa c:/tools/sming/Sming/compiler/lib/\libsming.a(Timer.o)

.debug_aranges  0x00000000      0xb90
 .debug_aranges
                0x00000000       0x38 c:/tools/sming/Sming/compiler/lib/\libsming.a(user_main.o)
 .debug_aranges
                0x00000038       0xf0 c:/tools/sming/Sming/compiler/lib/\libsming.a(System.o)
 .debug_aranges
                0x00000128       0x48 c:/tools/sming/Sming/compiler/lib/\libsming.a(esp_cplusplus.o)
 .debug_aranges
                0x00000170       0x48 c:/tools/sming/Sming/compiler/lib/\libsming.a(m_printf.o)
 .debug_aranges
                0x000001b8       0x48 c:/tools/sming/Sming/compiler/lib/\libsming.a(stringconversion.o)
 .debug_aranges
                0x00000200       0x90 c:/tools/sming/Sming/compiler/lib/\libsming.a(IPAddress.o)
 .debug_aranges
                0x00000290       0xf0 c:/tools/sming/Sming/compiler/lib/\libsming.a(Print.o)
 .debug_aranges
                0x00000380      0x298 c:/tools/sming/Sming/compiler/lib/\libsming.a(WString.o)
 .debug_aranges
                0x00000618       0x98 c:/tools/sming/Sming/compiler/lib/\libsming.a(Interrupts.o)
 .debug_aranges
                0x000006b0       0x58 c:/tools/sming/Sming/compiler/lib/\libsming.a(Digital.o)
 .debug_aranges
                0x00000708       0x40 out/build/app_app.a(application.o)
 .debug_aranges
                0x00000748       0x20 c:/tools/sming/Sming/compiler/lib/\libmicroc.a(isspace.o)
 .debug_aranges
                0x00000768       0x20 c:/tools/sming/Sming/compiler/lib/\libmicroc.a(tolower.o)
 .debug_aranges
                0x00000788       0x20 c:/tools/sming/Sming/compiler/lib/\libmicroc.a(toupper.o)
 .debug_aranges
                0x000007a8       0x20 c:/tools/sming/Sming/compiler/lib/\libmicroc.a(atof.o)
 .debug_aranges
                0x000007c8       0x20 c:/tools/sming/Sming/compiler/lib/\libmicroc.a(atoi.o)
 .debug_aranges
                0x000007e8       0x20 c:/tools/sming/Sming/compiler/lib/\libmicroc.a(strtod.o)
 .debug_aranges
                0x00000808       0x20 c:/tools/sming/Sming/compiler/lib/\libmicroc.a(__fpclassify.o)
 .debug_aranges
                0x00000828       0x20 c:/tools/sming/Sming/compiler/lib/\libmicroc.a(strchr.o)
 .debug_aranges
                0x00000848       0x20 c:/tools/sming/Sming/compiler/lib/\libmicroc.a(strrchr.o)
 .debug_aranges
                0x00000868       0x20 c:/tools/sming/Sming/compiler/lib/\libmicroc.a(strchrnul.o)
 .debug_aranges
                0x00000888       0x20 c:/tools/sming/Sming/compiler/lib/\libmicroc.a(malloc.o)
 .debug_aranges
                0x000008a8       0x20 c:/tools/sming/Sming/compiler/lib/\libmicroc.a(abort.o)
 .debug_aranges
                0x000008c8       0x20 c:/tools/sming/Sming/compiler/lib/\libmicroc.a(floatscan.o)
 .debug_aranges
                0x000008e8       0x20 c:/tools/sming/Sming/compiler/lib/\libmicroc.a(shgetc.o)
 .debug_aranges
                0x00000908       0x20 c:/tools/sming/Sming/compiler/lib/\libmicroc.a(__uflow.o)
 .debug_aranges
                0x00000928       0x20 c:/tools/sming/Sming/compiler/lib/\libmicroc.a(__toread.o)
 .debug_aranges
                0x00000948       0x20 c:/tools/sming/Sming/compiler/lib/\libmicroc.a(__stdio_exit.o)
 .debug_aranges
                0x00000968       0x20 c:/tools/sming/Sming/compiler/lib/\libmicroc.a(fmodl.o)
 .debug_aranges
                0x00000988       0x20 c:/tools/sming/Sming/compiler/lib/\libmicroc.a(scalbn.o)
 .debug_aranges
                0x000009a8       0x20 c:/tools/sming/Sming/compiler/lib/\libmicroc.a(scalbnl.o)
 .debug_aranges
                0x000009c8       0x20 c:/tools/sming/Sming/compiler/lib/\libmicroc.a(__errno_location.o)
 .debug_aranges
                0x000009e8       0x20 c:/tools/sming/Sming/compiler/lib/\libmicroc.a(fmod.o)
 .debug_aranges
                0x00000a08       0x20 c:/tools/sming/Sming/compiler/lib/\libmicrogcc.a(_ashldi3.o)
 .debug_aranges
                0x00000a28       0x20 c:/tools/sming/Sming/compiler/lib/\libmicrogcc.a(_cmpdf2.o)
 .debug_aranges
                0x00000a48       0x20 c:/tools/sming/Sming/compiler/lib/\libmicrogcc.a(_lshrdi3.o)
 .debug_aranges
                0x00000a68       0x20 c:/tools/sming/Sming/compiler/lib/\libmicrogcc.a(_modsi3.o)
 .debug_aranges
                0x00000a88       0xa8 c:/tools/sming/Sming/compiler/lib/\libsming.a(Timer.o)
 .debug_aranges
                0x00000b30       0x20 c:/tools/sming/Sming/compiler/lib/\libmicrogcc.a(_ashrdi3.o)
 .debug_aranges
                0x00000b50       0x20 c:/tools/sming/Sming/compiler/lib/\libmicrogcc.a(_divsf3.o)
 .debug_aranges
                0x00000b70       0x20 c:/tools/sming/Sming/compiler/lib/\libmicrogcc.a(_fixsfsi.o)

.debug_ranges   0x00000000      0xcc8
 .debug_ranges  0x00000000       0x48 c:/tools/sming/Sming/compiler/lib/\libsming.a(user_main.o)
 .debug_ranges  0x00000048      0x210 c:/tools/sming/Sming/compiler/lib/\libsming.a(System.o)
 .debug_ranges  0x00000258       0x38 c:/tools/sming/Sming/compiler/lib/\libsming.a(esp_cplusplus.o)
 .debug_ranges  0x00000290       0x58 c:/tools/sming/Sming/compiler/lib/\libsming.a(m_printf.o)
 .debug_ranges  0x000002e8       0x38 c:/tools/sming/Sming/compiler/lib/\libsming.a(stringconversion.o)
 .debug_ranges  0x00000320       0x98 c:/tools/sming/Sming/compiler/lib/\libsming.a(IPAddress.o)
 .debug_ranges  0x000003b8      0x1c0 c:/tools/sming/Sming/compiler/lib/\libsming.a(Print.o)
 .debug_ranges  0x00000578      0x428 c:/tools/sming/Sming/compiler/lib/\libsming.a(WString.o)
 .debug_ranges  0x000009a0       0xc0 c:/tools/sming/Sming/compiler/lib/\libsming.a(Interrupts.o)
 .debug_ranges  0x00000a60       0x68 c:/tools/sming/Sming/compiler/lib/\libsming.a(Digital.o)
 .debug_ranges  0x00000ac8       0x68 out/build/app_app.a(application.o)
 .debug_ranges  0x00000b30       0x18 c:/tools/sming/Sming/compiler/lib/\libmicroc.a(atoi.o)
 .debug_ranges  0x00000b48       0x18 c:/tools/sming/Sming/compiler/lib/\libmicroc.a(malloc.o)
 .debug_ranges  0x00000b60       0x80 c:/tools/sming/Sming/compiler/lib/\libmicroc.a(floatscan.o)
 .debug_ranges  0x00000be0       0xe8 c:/tools/sming/Sming/compiler/lib/\libsming.a(Timer.o)

.debug_line     0x00000000     0x77f3
 .debug_line    0x00000000      0x39e c:/tools/sming/Sming/compiler/lib/\libsming.a(user_main.o)
 .debug_line    0x0000039e      0x9a8 c:/tools/sming/Sming/compiler/lib/\libsming.a(System.o)
 .debug_line    0x00000d46      0x1ed c:/tools/sming/Sming/compiler/lib/\libsming.a(esp_cplusplus.o)
 .debug_line    0x00000f33      0x6e1 c:/tools/sming/Sming/compiler/lib/\libsming.a(m_printf.o)
 .debug_line    0x00001614      0x442 c:/tools/sming/Sming/compiler/lib/\libsming.a(stringconversion.o)
 .debug_line    0x00001a56      0x5bd c:/tools/sming/Sming/compiler/lib/\libsming.a(IPAddress.o)
 .debug_line    0x00002013      0x826 c:/tools/sming/Sming/compiler/lib/\libsming.a(Print.o)
 .debug_line    0x00002839     0x154c c:/tools/sming/Sming/compiler/lib/\libsming.a(WString.o)
 .debug_line    0x00003d85      0x637 c:/tools/sming/Sming/compiler/lib/\libsming.a(Interrupts.o)
 .debug_line    0x000043bc      0x43b c:/tools/sming/Sming/compiler/lib/\libsming.a(Digital.o)
 .debug_line    0x000047f7      0x3cb out/build/app_app.a(application.o)
 .debug_line    0x00004bc2       0x4a c:/tools/sming/Sming/compiler/lib/\libmicroc.a(isspace.o)
 .debug_line    0x00004c0c       0x56 c:/tools/sming/Sming/compiler/lib/\libmicroc.a(tolower.o)
 .debug_line    0x00004c62       0x56 c:/tools/sming/Sming/compiler/lib/\libmicroc.a(toupper.o)
 .debug_line    0x00004cb8       0x68 c:/tools/sming/Sming/compiler/lib/\libmicroc.a(atof.o)
 .debug_line    0x00004d20       0xdb c:/tools/sming/Sming/compiler/lib/\libmicroc.a(atoi.o)
 .debug_line    0x00004dfb      0x142 c:/tools/sming/Sming/compiler/lib/\libmicroc.a(strtod.o)
 .debug_line    0x00004f3d       0xbe c:/tools/sming/Sming/compiler/lib/\libmicroc.a(__fpclassify.o)
 .debug_line    0x00004ffb       0x68 c:/tools/sming/Sming/compiler/lib/\libmicroc.a(strchr.o)
 .debug_line    0x00005063       0x4b c:/tools/sming/Sming/compiler/lib/\libmicroc.a(strrchr.o)
 .debug_line    0x000050ae       0xfb c:/tools/sming/Sming/compiler/lib/\libmicroc.a(strchrnul.o)
 .debug_line    0x000051a9       0xec c:/tools/sming/Sming/compiler/lib/\libmicroc.a(malloc.o)
 .debug_line    0x00005295       0x6d c:/tools/sming/Sming/compiler/lib/\libmicroc.a(abort.o)
 .debug_line    0x00005302      0xe0b c:/tools/sming/Sming/compiler/lib/\libmicroc.a(floatscan.o)
 .debug_line    0x0000610d      0x130 c:/tools/sming/Sming/compiler/lib/\libmicroc.a(shgetc.o)
 .debug_line    0x0000623d       0xaf c:/tools/sming/Sming/compiler/lib/\libmicroc.a(__uflow.o)
 .debug_line    0x000062ec       0xf2 c:/tools/sming/Sming/compiler/lib/\libmicroc.a(__toread.o)
 .debug_line    0x000063de       0x8c c:/tools/sming/Sming/compiler/lib/\libmicroc.a(__stdio_exit.o)
 .debug_line    0x0000646a       0x59 c:/tools/sming/Sming/compiler/lib/\libmicroc.a(fmodl.o)
 .debug_line    0x000064c3       0xd0 c:/tools/sming/Sming/compiler/lib/\libmicroc.a(scalbn.o)
 .debug_line    0x00006593       0x5b c:/tools/sming/Sming/compiler/lib/\libmicroc.a(scalbnl.o)
 .debug_line    0x000065ee       0x4d c:/tools/sming/Sming/compiler/lib/\libmicroc.a(__errno_location.o)
 .debug_line    0x0000663b      0x214 c:/tools/sming/Sming/compiler/lib/\libmicroc.a(fmod.o)
 .debug_line    0x0000684f       0x85 c:/tools/sming/Sming/compiler/lib/\libmicrogcc.a(_ashldi3.o)
 .debug_line    0x000068d4      0x35c c:/tools/sming/Sming/compiler/lib/\libmicrogcc.a(_cmpdf2.o)
 .debug_line    0x00006c30       0x85 c:/tools/sming/Sming/compiler/lib/\libmicrogcc.a(_lshrdi3.o)
 .debug_line    0x00006cb5       0xe5 c:/tools/sming/Sming/compiler/lib/\libmicrogcc.a(_modsi3.o)
 .debug_line    0x00006d9a      0x610 c:/tools/sming/Sming/compiler/lib/\libsming.a(Timer.o)
 .debug_line    0x000073aa       0x85 c:/tools/sming/Sming/compiler/lib/\libmicrogcc.a(_ashrdi3.o)
 .debug_line    0x0000742f      0x2e4 c:/tools/sming/Sming/compiler/lib/\libmicrogcc.a(_divsf3.o)
 .debug_line    0x00007713       0xe0 c:/tools/sming/Sming/compiler/lib/\libmicrogcc.a(_fixsfsi.o)

.debug_str      0x00000000     0x45e1
 .debug_str     0x00000000      0xbdd c:/tools/sming/Sming/compiler/lib/\libsming.a(user_main.o)
                                0xcca (size before relaxing)
 .debug_str     0x00000bdd     0x14bf c:/tools/sming/Sming/compiler/lib/\libsming.a(System.o)
                               0x1e68 (size before relaxing)
 .debug_str     0x0000209c       0xa3 c:/tools/sming/Sming/compiler/lib/\libsming.a(esp_cplusplus.o)
                                0x2d3 (size before relaxing)
 .debug_str     0x0000213f      0x124 c:/tools/sming/Sming/compiler/lib/\libsming.a(m_printf.o)
                                0x635 (size before relaxing)
 .debug_str     0x00002263       0xba c:/tools/sming/Sming/compiler/lib/\libsming.a(stringconversion.o)
                                0x2dd (size before relaxing)
 .debug_str     0x0000231d      0xe61 c:/tools/sming/Sming/compiler/lib/\libsming.a(IPAddress.o)
                               0x1420 (size before relaxing)
 .debug_str     0x0000317e      0x38b c:/tools/sming/Sming/compiler/lib/\libsming.a(Print.o)
                               0x1156 (size before relaxing)
 .debug_str     0x00003509      0x31a c:/tools/sming/Sming/compiler/lib/\libsming.a(WString.o)
                               0x1068 (size before relaxing)
 .debug_str     0x00003823      0x482 c:/tools/sming/Sming/compiler/lib/\libsming.a(Interrupts.o)
                                0xb1c (size before relaxing)
 .debug_str     0x00003ca5       0xf8 c:/tools/sming/Sming/compiler/lib/\libsming.a(Digital.o)
                                0x500 (size before relaxing)
 .debug_str     0x00003d9d      0x3a0 out/build/app_app.a(application.o)
                                0xbcc (size before relaxing)
 .debug_str     0x0000413d       0x49 c:/tools/sming/Sming/compiler/lib/\libmicroc.a(isspace.o)
                                 0xf0 (size before relaxing)
 .debug_str     0x00004186       0x10 c:/tools/sming/Sming/compiler/lib/\libmicroc.a(tolower.o)
                                 0xf0 (size before relaxing)
 .debug_str     0x00004196       0x10 c:/tools/sming/Sming/compiler/lib/\libmicroc.a(toupper.o)
                                 0xf0 (size before relaxing)
 .debug_str     0x000041a6       0x15 c:/tools/sming/Sming/compiler/lib/\libmicroc.a(atof.o)
                                 0xe9 (size before relaxing)
 .debug_str     0x000041bb       0x18 c:/tools/sming/Sming/compiler/lib/\libmicroc.a(atoi.o)
                                 0xec (size before relaxing)
 .debug_str     0x000041d3       0xe7 c:/tools/sming/Sming/compiler/lib/\libmicroc.a(strtod.o)
                                0x20b (size before relaxing)
 .debug_str     0x000042ba       0x21 c:/tools/sming/Sming/compiler/lib/\libmicroc.a(__fpclassify.o)
                                0x102 (size before relaxing)
 .debug_str     0x000042db       0x1c c:/tools/sming/Sming/compiler/lib/\libmicroc.a(strchr.o)
                                 0xf2 (size before relaxing)
 .debug_str     0x000042f7       0x1d c:/tools/sming/Sming/compiler/lib/\libmicroc.a(strrchr.o)
                                 0xf4 (size before relaxing)
 .debug_str     0x00004314       0x13 c:/tools/sming/Sming/compiler/lib/\libmicroc.a(strchrnul.o)
                                0x10e (size before relaxing)
 .debug_str     0x00004327       0x50 c:/tools/sming/Sming/compiler/lib/\libmicroc.a(malloc.o)
                                0x13a (size before relaxing)
 .debug_str     0x00004377       0x1c c:/tools/sming/Sming/compiler/lib/\libmicroc.a(abort.o)
                                 0xf1 (size before relaxing)
 .debug_str     0x00004393       0xb8 c:/tools/sming/Sming/compiler/lib/\libmicroc.a(floatscan.o)
                                0x2ab (size before relaxing)
 .debug_str     0x0000444b       0x1a c:/tools/sming/Sming/compiler/lib/\libmicroc.a(shgetc.o)
                                0x1dd (size before relaxing)
 .debug_str     0x00004465       0x19 c:/tools/sming/Sming/compiler/lib/\libmicroc.a(__uflow.o)
                                0x1d3 (size before relaxing)
 .debug_str     0x0000447e       0x3f c:/tools/sming/Sming/compiler/lib/\libmicroc.a(__toread.o)
                                0x1fa (size before relaxing)
 .debug_str     0x000044bd       0x2d c:/tools/sming/Sming/compiler/lib/\libmicroc.a(__stdio_exit.o)
                                0x1df (size before relaxing)
 .debug_str     0x000044ea       0x12 c:/tools/sming/Sming/compiler/lib/\libmicroc.a(fmodl.o)
                                 0xee (size before relaxing)
 .debug_str     0x000044fc        0xe c:/tools/sming/Sming/compiler/lib/\libmicroc.a(scalbn.o)
                                 0xe8 (size before relaxing)
 .debug_str     0x0000450a        0xf c:/tools/sming/Sming/compiler/lib/\libmicroc.a(scalbnl.o)
                                 0xf4 (size before relaxing)
 .debug_str     0x00004519       0x20 c:/tools/sming/Sming/compiler/lib/\libmicroc.a(__errno_location.o)
                                 0x6a (size before relaxing)
 .debug_str     0x00004539       0x1a c:/tools/sming/Sming/compiler/lib/\libmicroc.a(fmod.o)
                                 0xf2 (size before relaxing)
 .debug_str     0x00004553       0x8e c:/tools/sming/Sming/compiler/lib/\libsming.a(Timer.o)
                                0x9f9 (size before relaxing)
